

HI-TECH Software PIC LITE Macro Assembler V9.80 build 6738 
                                                                                               Wed Jun 20 23:05:08 2012

HI-TECH Software Omniscient Code Generator (Lite mode) build 6738
     1  0000                     opt subtitle "HI-TECH Software Omniscient Code Generator (Lite mode) build 6738"
     2                           
     3                           opt pagewidth 120
     4                           
     5                           	opt lm
     6                           
     7                           	processor	16F777
     8                           clrc	macro
     9                           	bcf	3,0
    10  0000                     	endm
    11                           clrz	macro
    12                           	bcf	3,2
    13  0000                     	endm
    14                           setc	macro
    15                           	bsf	3,0
    16  0000                     	endm
    17                           setz	macro
    18                           	bsf	3,2
    19  0000                     	endm
    20                           skipc	macro
    21                           	btfss	3,0
    22  0000                     	endm
    23                           skipz	macro
    24                           	btfss	3,2
    25  0000                     	endm
    26                           skipnc	macro
    27                           	btfsc	3,0
    28  0000                     	endm
    29                           skipnz	macro
    30                           	btfsc	3,2
    31  0000                     	endm
    32  0000                     indf	equ	0
    33  0000                     indf0	equ	0
    34  0002                     pc	equ	2
    35  0002                     pcl	equ	2
    36  0003                     status	equ	3
    37  0004                     fsr	equ	4
    38  0004                     fsr0	equ	4
    39  0001                     c	equ	1
    40  0000                     z	equ	0
    41  000A                     pclath	equ	10
    42                           # 14 "C:\Users\Phang\Desktop\9.80\PR 19\PR19.c"
    43                           	psect config,class=CONFIG,delta=2 ;#
    44                           # 14 "C:\Users\Phang\Desktop\9.80\PR 19\PR19.c"
    45  2007  3FA2               	dw 0x3FA2 ;#
    46                           # 15 "C:\Users\Phang\Desktop\9.80\PR 19\PR19.c"
    47                           	psect config,class=CONFIG,delta=2 ;#
    48                           # 15 "C:\Users\Phang\Desktop\9.80\PR 19\PR19.c"
    49  2008  3FBC               	dw 0x3FBC ;#
    50                           	FNCALL	_main,_send_config
    51                           	FNCALL	_main,_delay
    52                           	FNCALL	_main,_alphamode
    53                           	FNCALL	_main,_betamode
    54                           	FNCALL	_main,_shift_display
    55                           	FNCALL	_betamode,_deg_330
    56                           	FNCALL	_betamode,_delay
    57                           	FNCALL	_betamode,_deg_0
    58                           	FNCALL	_betamode,_deg_30
    59                           	FNCALL	_betamode,_deg_150
    60                           	FNCALL	_betamode,_deg_180
    61                           	FNCALL	_betamode,_deg_210
    62                           	FNCALL	_betamode,_m_stop
    63                           	FNCALL	_alphamode,_deg_270
    64                           	FNCALL	_alphamode,_delay
    65                           	FNCALL	_alphamode,_deg_0
    66                           	FNCALL	_alphamode,_deg_90
    67                           	FNCALL	_alphamode,_deg_180
    68                           	FNCALL	_alphamode,_clockwise
    69                           	FNCALL	_alphamode,_m_stop
    70                           	FNCALL	_deg_210,_lm_run
    71                           	FNCALL	_deg_210,_bm_run
    72                           	FNCALL	_deg_210,_mode_display
    73                           	FNCALL	_deg_150,_rm_run
    74                           	FNCALL	_deg_150,_bm_run
    75                           	FNCALL	_deg_150,_mode_display
    76                           	FNCALL	_deg_30,_lm_run
    77                           	FNCALL	_deg_30,_bm_run
    78                           	FNCALL	_deg_30,_mode_display
    79                           	FNCALL	_deg_330,_rm_run
    80                           	FNCALL	_deg_330,_bm_run
    81                           	FNCALL	_deg_330,_mode_display
    82                           	FNCALL	_m_stop,_mode_display
    83                           	FNCALL	_clockwise,_lm_run
    84                           	FNCALL	_clockwise,_rm_run
    85                           	FNCALL	_clockwise,_bm_run
    86                           	FNCALL	_clockwise,_mode_display
    87                           	FNCALL	_deg_180,_lm_run
    88                           	FNCALL	_deg_180,_rm_run
    89                           	FNCALL	_deg_180,_mode_display
    90                           	FNCALL	_deg_90,_lm_run
    91                           	FNCALL	_deg_90,_rm_run
    92                           	FNCALL	_deg_90,_bm_run
    93                           	FNCALL	_deg_90,_mode_display
    94                           	FNCALL	_deg_0,_lm_run
    95                           	FNCALL	_deg_0,_rm_run
    96                           	FNCALL	_deg_0,_mode_display
    97                           	FNCALL	_deg_270,_lm_run
    98                           	FNCALL	_deg_270,_rm_run
    99                           	FNCALL	_deg_270,_bm_run
   100                           	FNCALL	_deg_270,_mode_display
   101                           	FNCALL	_mode_display,_lcd_clr
   102                           	FNCALL	_mode_display,_lcd_goto
   103                           	FNCALL	_mode_display,_send_string
   104                           	FNCALL	_mode_display,_delay
   105                           	FNCALL	_shift_display,_lcd_clr
   106                           	FNCALL	_shift_display,_lcd_goto
   107                           	FNCALL	_shift_display,_send_string
   108                           	FNCALL	_shift_display,_send_config
   109                           	FNCALL	_shift_display,_delay
   110                           	FNCALL	_send_string,_send_char
   111                           	FNCALL	_lcd_clr,_send_config
   112                           	FNCALL	_lcd_clr,_delay
   113                           	FNCALL	_lcd_goto,_send_config
   114                           	FNCALL	_send_char,_delay
   115                           	FNCALL	_send_config,_delay
   116                           	FNROOT	_main
   117                           	global	_i
   118                           	global	_shift
   119                           	global	_CCP1CON
   120                           psect	text572,local,class=CODE,delta=2
   121                           global __ptext572
   122  0000                     __ptext572:
   123  0017                     _CCP1CON	set	23
   124                           	global	_CCP2CON
   125  001D                     _CCP2CON	set	29
   126                           	global	_CCPR1L
   127  0015                     _CCPR1L	set	21
   128                           	global	_CCPR2L
   129  001B                     _CCPR2L	set	27
   130                           	global	_PORTB
   131  0006                     _PORTB	set	6
   132                           	global	_PORTC
   133  0007                     _PORTC	set	7
   134                           	global	_PORTD
   135  0008                     _PORTD	set	8
   136                           	global	_T2CON
   137  0012                     _T2CON	set	18
   138                           	global	_RA0
   139  0028                     _RA0	set	40
   140                           	global	_RA1
   141  0029                     _RA1	set	41
   142                           	global	_RA2
   143  002A                     _RA2	set	42
   144                           	global	_RA3
   145  002B                     _RA3	set	43
   146                           	global	_RB3
   147  0033                     _RB3	set	51
   148                           	global	_RB4
   149  0034                     _RB4	set	52
   150                           	global	_RB6
   151  0036                     _RB6	set	54
   152                           	global	_RB7
   153  0037                     _RB7	set	55
   154                           	global	_RC0
   155  0038                     _RC0	set	56
   156                           	global	_RC3
   157  003B                     _RC3	set	59
   158                           	global	_RC4
   159  003C                     _RC4	set	60
   160                           	global	_RC5
   161  003D                     _RC5	set	61
   162                           	global	_ADCON1
   163  009F                     _ADCON1	set	159
   164                           	global	_CCP3CON
   165  0097                     _CCP3CON	set	151
   166                           	global	_CCPR3L
   167  0095                     _CCPR3L	set	149
   168                           	global	_PR2
   169  0092                     _PR2	set	146
   170                           	global	_TRISA
   171  0085                     _TRISA	set	133
   172                           	global	_TRISB
   173  0086                     _TRISB	set	134
   174                           	global	_TRISC
   175  0087                     _TRISC	set	135
   176                           	global	_TRISD
   177  0088                     _TRISD	set	136
   178                           psect	strings,class=STRING,delta=2
   179                           global __pstrings
   180  0003                     __pstrings:
   181                           ;	global	stringdir,stringtab,__stringbase
   182  0003                     stringtab:
   183                           ;	String table - string pointers are 1 byte each
   184  0003                     stringcode:stringdir:
      + 0003                     stringdir:	
   185  0003  3000               movlw high(stringdir)
   186  0004  008A               movwf pclath
   187  0005  0804               movf fsr,w
   188  0006  0A84               incf fsr
   189  0007  0782               	addwf pc
   190  0008                     __stringbase:
   191  0008  3400               	retlw	0
   192                           psect	strings
   193                           	
   194  0009                     STR_33:	
   195  0009  3443               	retlw	67	;'C'
   196  000A  3479               	retlw	121	;'y'
   197  000B  3474               	retlw	116	;'t'
   198  000C  3472               	retlw	114	;'r'
   199  000D  346F               	retlw	111	;'o'
   200  000E  346E               	retlw	110	;'n'
   201  000F  3420               	retlw	32	;' '
   202  0010  3446               	retlw	70	;'F'
   203  0011  346C               	retlw	108	;'l'
   204  0012  3465               	retlw	101	;'e'
   205  0013  3478               	retlw	120	;'x'
   206  0014  3469               	retlw	105	;'i'
   207  0015  3462               	retlw	98	;'b'
   208  0016  346F               	retlw	111	;'o'
   209  0017  3474               	retlw	116	;'t'
   210  0018  3400               	retlw	0
   211                           psect	strings
   212                           	
   213  0019                     STR_29:	
   214  0019  3441               	retlw	65	;'A'
   215  001A  346E               	retlw	110	;'n'
   216  001B  3474               	retlw	116	;'t'
   217  001C  3469               	retlw	105	;'i'
   218  001D  3463               	retlw	99	;'c'
   219  001E  346C               	retlw	108	;'l'
   220  001F  346F               	retlw	111	;'o'
   221  0020  3463               	retlw	99	;'c'
   222  0021  346B               	retlw	107	;'k'
   223  0022  3477               	retlw	119	;'w'
   224  0023  3469               	retlw	105	;'i'
   225  0024  3473               	retlw	115	;'s'
   226  0025  3465               	retlw	101	;'e'
   227  0026  3400               	retlw	0
   228                           psect	strings
   229                           	
   230  0027                     STR_34:	
   231  0027  3441               	retlw	65	;'A'
   232  0028  346C               	retlw	108	;'l'
   233  0029  3470               	retlw	112	;'p'
   234  002A  3468               	retlw	104	;'h'
   235  002B  3461               	retlw	97	;'a'
   236  002C  3420               	retlw	32	;' '
   237  002D  344D               	retlw	77	;'M'
   238  002E  346F               	retlw	111	;'o'
   239  002F  3464               	retlw	100	;'d'
   240  0030  3465               	retlw	101	;'e'
   241  0031  343F               	retlw	63	;'?'
   242  0032  3400               	retlw	0
   243                           psect	strings
   244                           	
   245  0033                     STR_36:	
   246  0033  3442               	retlw	66	;'B'
   247  0034  3465               	retlw	101	;'e'
   248  0035  3474               	retlw	116	;'t'
   249  0036  3461               	retlw	97	;'a'
   250  0037  3420               	retlw	32	;' '
   251  0038  344D               	retlw	77	;'M'
   252  0039  346F               	retlw	111	;'o'
   253  003A  3464               	retlw	100	;'d'
   254  003B  3465               	retlw	101	;'e'
   255  003C  343F               	retlw	63	;'?'
   256  003D  3400               	retlw	0
   257                           psect	strings
   258                           	
   259  003E                     STR_27:	
   260  003E  3443               	retlw	67	;'C'
   261  003F  346C               	retlw	108	;'l'
   262  0040  346F               	retlw	111	;'o'
   263  0041  3463               	retlw	99	;'c'
   264  0042  346B               	retlw	107	;'k'
   265  0043  3477               	retlw	119	;'w'
   266  0044  3469               	retlw	105	;'i'
   267  0045  3473               	retlw	115	;'s'
   268  0046  3465               	retlw	101	;'e'
   269  0047  3400               	retlw	0
   270                           psect	strings
   271                           	
   272  0048                     STR_4:	
   273  0048  3444               	retlw	68	;'D'
   274  0049  3465               	retlw	101	;'e'
   275  004A  3467               	retlw	103	;'g'
   276  004B  3472               	retlw	114	;'r'
   277  004C  3465               	retlw	101	;'e'
   278  004D  3465               	retlw	101	;'e'
   279  004E  3400               	retlw	0
   280                           psect	strings
   281                           	
   282  004F                     STR_31:	
   283  004F  3443               	retlw	67	;'C'
   284  0050  3479               	retlw	121	;'y'
   285  0051  3474               	retlw	116	;'t'
   286  0052  3472               	retlw	114	;'r'
   287  0053  346F               	retlw	111	;'o'
   288  0054  346E               	retlw	110	;'n'
   289  0055  3400               	retlw	0
   290                           psect	strings
   291                           	
   292  0056                     STR_2:	
   293  0056  3453               	retlw	83	;'S'
   294  0057  3474               	retlw	116	;'t'
   295  0058  346F               	retlw	111	;'o'
   296  0059  3470               	retlw	112	;'p'
   297  005A  3400               	retlw	0
   298                           psect	strings
   299                           	
   300  005B                     STR_23:	
   301  005B  3433               	retlw	51	;'3'
   302  005C  3430               	retlw	48	;'0'
   303  005D  3430               	retlw	48	;'0'
   304  005E  3400               	retlw	0
   305                           psect	strings
   306                           	
   307  005F                     STR_17:	
   308  005F  3432               	retlw	50	;'2'
   309  0060  3431               	retlw	49	;'1'
   310  0061  3430               	retlw	48	;'0'
   311  0062  3400               	retlw	0
   312                           psect	strings
   313                           	
   314  0063                     STR_11:	
   315  0063  3431               	retlw	49	;'1'
   316  0064  3432               	retlw	50	;'2'
   317  0065  3430               	retlw	48	;'0'
   318  0066  3400               	retlw	0
   319                           psect	strings
   320                           	
   321  0067                     STR_25:	
   322  0067  3433               	retlw	51	;'3'
   323  0068  3433               	retlw	51	;'3'
   324  0069  3430               	retlw	48	;'0'
   325  006A  3400               	retlw	0
   326                           psect	strings
   327                           	
   328  006B                     STR_19:	
   329  006B  3432               	retlw	50	;'2'
   330  006C  3434               	retlw	52	;'4'
   331  006D  3430               	retlw	48	;'0'
   332  006E  3400               	retlw	0
   333                           psect	strings
   334                           	
   335  006F                     STR_13:	
   336  006F  3431               	retlw	49	;'1'
   337  0070  3435               	retlw	53	;'5'
   338  0071  3430               	retlw	48	;'0'
   339  0072  3400               	retlw	0
   340                           psect	strings
   341                           	
   342  0073                     STR_21:	
   343  0073  3432               	retlw	50	;'2'
   344  0074  3437               	retlw	55	;'7'
   345  0075  3430               	retlw	48	;'0'
   346  0076  3400               	retlw	0
   347                           psect	strings
   348                           	
   349  0077                     STR_15:	
   350  0077  3431               	retlw	49	;'1'
   351  0078  3438               	retlw	56	;'8'
   352  0079  3430               	retlw	48	;'0'
   353  007A  3400               	retlw	0
   354                           psect	strings
   355                           	
   356  007B                     STR_7:	
   357  007B  3436               	retlw	54	;'6'
   358  007C  3430               	retlw	48	;'0'
   359  007D  3400               	retlw	0
   360                           psect	strings
   361                           	
   362  007E                     STR_9:	
   363  007E  3439               	retlw	57	;'9'
   364  007F  3430               	retlw	48	;'0'
   365  0080  3400               	retlw	0
   366                           psect	strings
   367  0009                     STR_35	equ	STR_33+0
   368  0010                     STR_1	equ	STR_33+7
   369  0010                     STR_32	equ	STR_33+7
   370  0048                     STR_6	equ	STR_4+0
   371  0048                     STR_8	equ	STR_4+0
   372  0048                     STR_10	equ	STR_4+0
   373  0048                     STR_12	equ	STR_4+0
   374  0048                     STR_14	equ	STR_4+0
   375  0048                     STR_16	equ	STR_4+0
   376  0048                     STR_18	equ	STR_4+0
   377  0048                     STR_20	equ	STR_4+0
   378  0048                     STR_22	equ	STR_4+0
   379  0048                     STR_24	equ	STR_4+0
   380  0048                     STR_26	equ	STR_4+0
   381  0068                     STR_5	equ	STR_25+1
   382  005D                     STR_3	equ	STR_23+2
   383  005E                     STR_28	equ	STR_23+3
   384  005E                     STR_30	equ	STR_23+3
   385                           	file	"PR 19.as"
   386                           	line	#
   387                           psect cinit,class=CODE,delta=2
   388                           global start_initialization
   389  025B                     start_initialization:
   390                           
   391                           psect	bssBANK0,class=BANK0,space=1
   392                           global __pbssBANK0
   393  0020                     __pbssBANK0:
   394  0020                     _i:
   395  0020                            ds      1
   396                           
   397  0021                     _shift:
   398  0021                            ds      1
   399                           
   400                           ; Clear objects allocated to BANK0
   401                           psect cinit,class=CODE,delta=2
   402  025B  01A0               	clrf	((__pbssBANK0)+0)&07Fh
   403  025C  01A1               	clrf	((__pbssBANK0)+1)&07Fh
   404                           psect cinit,class=CODE,delta=2
   405                           global end_of_initialization
   406                           
   407                           ;End of C runtime variable initialization code
   408                           
   409  025D                     end_of_initialization:
   410  025D  0183               clrf status
   411  025E  120A  118A  2E04   ljmp _main	;jump to C main() function
   412                           psect	cstackCOMMON,class=COMMON,space=1
   413                           global __pcstackCOMMON
   414  0070                     __pcstackCOMMON:
   415                           	global	?_send_config
   416  0070                     ?_send_config:	; 0 bytes @ 0x0
   417                           	global	?_delay
   418  0070                     ?_delay:	; 0 bytes @ 0x0
   419                           	global	?_alphamode
   420  0070                     ?_alphamode:	; 0 bytes @ 0x0
   421                           	global	?_betamode
   422  0070                     ?_betamode:	; 0 bytes @ 0x0
   423                           	global	?_shift_display
   424  0070                     ?_shift_display:	; 0 bytes @ 0x0
   425                           	global	?_deg_270
   426  0070                     ?_deg_270:	; 0 bytes @ 0x0
   427                           	global	?_deg_0
   428  0070                     ?_deg_0:	; 0 bytes @ 0x0
   429                           	global	?_deg_90
   430  0070                     ?_deg_90:	; 0 bytes @ 0x0
   431                           	global	?_deg_180
   432  0070                     ?_deg_180:	; 0 bytes @ 0x0
   433                           	global	?_clockwise
   434  0070                     ?_clockwise:	; 0 bytes @ 0x0
   435                           	global	?_m_stop
   436  0070                     ?_m_stop:	; 0 bytes @ 0x0
   437                           	global	?_deg_330
   438  0070                     ?_deg_330:	; 0 bytes @ 0x0
   439                           	global	?_deg_30
   440  0070                     ?_deg_30:	; 0 bytes @ 0x0
   441                           	global	?_deg_150
   442  0070                     ?_deg_150:	; 0 bytes @ 0x0
   443                           	global	?_deg_210
   444  0070                     ?_deg_210:	; 0 bytes @ 0x0
   445                           	global	?_main
   446  0070                     ?_main:	; 0 bytes @ 0x0
   447                           	global	?_lm_run
   448  0070                     ?_lm_run:	; 0 bytes @ 0x0
   449                           	global	??_lm_run
   450  0070                     ??_lm_run:	; 0 bytes @ 0x0
   451                           	global	?_rm_run
   452  0070                     ?_rm_run:	; 0 bytes @ 0x0
   453                           	global	??_rm_run
   454  0070                     ??_rm_run:	; 0 bytes @ 0x0
   455                           	global	?_bm_run
   456  0070                     ?_bm_run:	; 0 bytes @ 0x0
   457                           	global	??_bm_run
   458  0070                     ??_bm_run:	; 0 bytes @ 0x0
   459                           	global	?_send_char
   460  0070                     ?_send_char:	; 0 bytes @ 0x0
   461                           	global	?_lcd_goto
   462  0070                     ?_lcd_goto:	; 0 bytes @ 0x0
   463                           	global	?_lcd_clr
   464  0070                     ?_lcd_clr:	; 0 bytes @ 0x0
   465                           	global	?_send_string
   466  0070                     ?_send_string:	; 0 bytes @ 0x0
   467                           	global	lm_run@dir
   468  0070                     lm_run@dir:	; 1 bytes @ 0x0
   469                           	global	rm_run@dir
   470  0070                     rm_run@dir:	; 1 bytes @ 0x0
   471                           	global	bm_run@dir
   472  0070                     bm_run@dir:	; 1 bytes @ 0x0
   473                           	global	delay@data
   474  0070                     delay@data:	; 4 bytes @ 0x0
   475  0070                     	ds	4
   476                           	global	??_delay
   477  0074                     ??_delay:	; 0 bytes @ 0x4
   478  0074                     	ds	4
   479                           	global	??_send_config
   480  0078                     ??_send_config:	; 0 bytes @ 0x8
   481                           	global	??_send_char
   482  0078                     ??_send_char:	; 0 bytes @ 0x8
   483                           	global	send_config@data
   484  0078                     send_config@data:	; 1 bytes @ 0x8
   485                           	global	send_char@data
   486  0078                     send_char@data:	; 1 bytes @ 0x8
   487  0078                     	ds	1
   488                           	global	??_lcd_goto
   489  0079                     ??_lcd_goto:	; 0 bytes @ 0x9
   490                           	global	??_lcd_clr
   491  0079                     ??_lcd_clr:	; 0 bytes @ 0x9
   492                           	global	??_send_string
   493  0079                     ??_send_string:	; 0 bytes @ 0x9
   494  0079                     	ds	1
   495                           	global	lcd_goto@data
   496  007A                     lcd_goto@data:	; 1 bytes @ 0xA
   497                           	global	send_string@s
   498  007A                     send_string@s:	; 1 bytes @ 0xA
   499  007A                     	ds	1
   500                           	global	??_shift_display
   501  007B                     ??_shift_display:	; 0 bytes @ 0xB
   502                           	global	?_mode_display
   503  007B                     ?_mode_display:	; 0 bytes @ 0xB
   504                           	global	mode_display@y
   505  007B                     mode_display@y:	; 1 bytes @ 0xB
   506  007B                     	ds	1
   507                           	global	??_mode_display
   508  007C                     ??_mode_display:	; 0 bytes @ 0xC
   509                           	global	mode_display@x
   510  007C                     mode_display@x:	; 1 bytes @ 0xC
   511  007C                     	ds	1
   512                           	global	??_deg_270
   513  007D                     ??_deg_270:	; 0 bytes @ 0xD
   514                           	global	??_deg_0
   515  007D                     ??_deg_0:	; 0 bytes @ 0xD
   516                           	global	??_deg_90
   517  007D                     ??_deg_90:	; 0 bytes @ 0xD
   518                           	global	??_deg_180
   519  007D                     ??_deg_180:	; 0 bytes @ 0xD
   520                           	global	??_clockwise
   521  007D                     ??_clockwise:	; 0 bytes @ 0xD
   522                           	global	??_m_stop
   523  007D                     ??_m_stop:	; 0 bytes @ 0xD
   524                           	global	??_deg_330
   525  007D                     ??_deg_330:	; 0 bytes @ 0xD
   526                           	global	??_deg_30
   527  007D                     ??_deg_30:	; 0 bytes @ 0xD
   528                           	global	??_deg_150
   529  007D                     ??_deg_150:	; 0 bytes @ 0xD
   530                           	global	??_deg_210
   531  007D                     ??_deg_210:	; 0 bytes @ 0xD
   532  007D                     	ds	1
   533                           	global	??_alphamode
   534  007E                     ??_alphamode:	; 0 bytes @ 0xE
   535                           	global	??_betamode
   536  007E                     ??_betamode:	; 0 bytes @ 0xE
   537                           psect	cstackBANK0,class=BANK0,space=1
   538                           global __pcstackBANK0
   539  0022                     __pcstackBANK0:
   540                           	global	??_main
   541  0022                     ??_main:	; 0 bytes @ 0x0
   542  0022                     	ds	1
   543 ;;Data sizes: Strings 120, constant 0, data 0, bss 2, persistent 0 stack 0
   544 ;;Auto spaces:   Size  Autos    Used
   545 ;; COMMON          14     14      14
   546 ;; BANK0           80      1       3
   547 ;; BANK1           80      0       0
   548 ;; BANK3           96      0       0
   549 ;; BANK2           96      0       0
   550                           
   551 ;;
   552 ;; Pointer list with targets:
   553                           
   554 ;; mode_display@y	PTR const unsigned char  size(1) Largest target is 7
   555 ;;		 -> STR_30(CODE[1]), STR_28(CODE[1]), STR_26(CODE[7]), STR_24(CODE[7]), 
   556 ;;		 -> STR_22(CODE[7]), STR_20(CODE[7]), STR_18(CODE[7]), STR_16(CODE[7]), 
   557 ;;		 -> STR_14(CODE[7]), STR_12(CODE[7]), STR_10(CODE[7]), STR_8(CODE[7]), 
   558 ;;		 -> STR_6(CODE[7]), STR_4(CODE[7]), STR_2(CODE[5]), 
   559 ;;
   560 ;; mode_display@x	PTR const unsigned char  size(1) Largest target is 14
   561 ;;		 -> STR_29(CODE[14]), STR_27(CODE[10]), STR_25(CODE[4]), STR_23(CODE[4]), 
   562 ;;		 -> STR_21(CODE[4]), STR_19(CODE[4]), STR_17(CODE[4]), STR_15(CODE[4]), 
   563 ;;		 -> STR_13(CODE[4]), STR_11(CODE[4]), STR_9(CODE[3]), STR_7(CODE[3]), 
   564 ;;		 -> STR_5(CODE[3]), STR_3(CODE[2]), STR_1(CODE[9]), 
   565 ;;
   566 ;; send_string@s	PTR const unsigned char  size(1) Largest target is 16
   567 ;;		 -> STR_36(CODE[11]), STR_35(CODE[16]), STR_34(CODE[12]), STR_33(CODE[16]), 
   568 ;;		 -> STR_32(CODE[9]), STR_31(CODE[7]), STR_30(CODE[1]), STR_29(CODE[14]), 
   569 ;;		 -> STR_28(CODE[1]), STR_27(CODE[10]), STR_26(CODE[7]), STR_25(CODE[4]), 
   570 ;;		 -> STR_24(CODE[7]), STR_23(CODE[4]), STR_22(CODE[7]), STR_21(CODE[4]), 
   571 ;;		 -> STR_20(CODE[7]), STR_19(CODE[4]), STR_18(CODE[7]), STR_17(CODE[4]), 
   572 ;;		 -> STR_16(CODE[7]), STR_15(CODE[4]), STR_14(CODE[7]), STR_13(CODE[4]), 
   573 ;;		 -> STR_12(CODE[7]), STR_11(CODE[4]), STR_10(CODE[7]), STR_9(CODE[3]), 
   574 ;;		 -> STR_8(CODE[7]), STR_7(CODE[3]), STR_6(CODE[7]), STR_5(CODE[3]), 
   575 ;;		 -> STR_4(CODE[7]), STR_3(CODE[2]), STR_2(CODE[5]), STR_1(CODE[9]), 
   576 ;;
   577                           
   578                           
   579 ;;
   580 ;; Critical Paths under _main in COMMON
   581 ;;
   582 ;;   _betamode->_deg_330
   583 ;;   _betamode->_deg_0
   584 ;;   _betamode->_deg_30
   585 ;;   _betamode->_deg_150
   586 ;;   _betamode->_deg_180
   587 ;;   _betamode->_deg_210
   588 ;;   _betamode->_m_stop
   589 ;;   _alphamode->_deg_270
   590 ;;   _alphamode->_deg_0
   591 ;;   _alphamode->_deg_90
   592 ;;   _alphamode->_deg_180
   593 ;;   _alphamode->_clockwise
   594 ;;   _alphamode->_m_stop
   595 ;;   _deg_210->_mode_display
   596 ;;   _deg_150->_mode_display
   597 ;;   _deg_30->_mode_display
   598 ;;   _deg_330->_mode_display
   599 ;;   _m_stop->_mode_display
   600 ;;   _clockwise->_mode_display
   601 ;;   _deg_180->_mode_display
   602 ;;   _deg_90->_mode_display
   603 ;;   _deg_0->_mode_display
   604 ;;   _deg_270->_mode_display
   605 ;;   _mode_display->_lcd_goto
   606 ;;   _mode_display->_send_string
   607 ;;   _shift_display->_lcd_goto
   608 ;;   _shift_display->_send_string
   609 ;;   _send_string->_send_char
   610 ;;   _lcd_clr->_send_config
   611 ;;   _lcd_goto->_send_config
   612 ;;   _send_char->_delay
   613 ;;   _send_config->_delay
   614 ;;
   615 ;; Critical Paths under _main in BANK0
   616 ;;
   617 ;;   None.
   618 ;;
   619 ;; Critical Paths under _main in BANK1
   620 ;;
   621 ;;   None.
   622 ;;
   623 ;; Critical Paths under _main in BANK3
   624 ;;
   625 ;;   None.
   626 ;;
   627 ;; Critical Paths under _main in BANK2
   628 ;;
   629 ;;   None.
   630                           
   631 ;;
   632 ;;Main: autosize = 0, tempsize = 1, incstack = 0, save=0
   633 ;;
   634                           
   635 ;;
   636 ;;Call Graph Tables:
   637 ;;
   638 ;; ---------------------------------------------------------------------------------
   639 ;; (Depth) Function   	        Calls       Base Space   Used Autos Params    Refs
   640 ;; ---------------------------------------------------------------------------------
   641 ;; (0) _main                                                 1     1      0    8199
   642 ;;                                              0 BANK0      1     1      0
   643 ;;                        _send_config
   644 ;;                              _delay
   645 ;;                          _alphamode
   646 ;;                           _betamode
   647 ;;                      _shift_display
   648 ;; ---------------------------------------------------------------------------------
   649 ;; (1) _betamode                                             0     0      0    4010
   650 ;;                            _deg_330
   651 ;;                              _delay
   652 ;;                              _deg_0
   653 ;;                             _deg_30
   654 ;;                            _deg_150
   655 ;;                            _deg_180
   656 ;;                            _deg_210
   657 ;;                             _m_stop
   658 ;; ---------------------------------------------------------------------------------
   659 ;; (1) _alphamode                                            0     0      0    3563
   660 ;;                            _deg_270
   661 ;;                              _delay
   662 ;;                              _deg_0
   663 ;;                             _deg_90
   664 ;;                            _deg_180
   665 ;;                          _clockwise
   666 ;;                             _m_stop
   667 ;; ---------------------------------------------------------------------------------
   668 ;; (2) _deg_210                                              1     1      0     579
   669 ;;                                             13 COMMON     1     1      0
   670 ;;                             _lm_run
   671 ;;                             _bm_run
   672 ;;                       _mode_display
   673 ;; ---------------------------------------------------------------------------------
   674 ;; (2) _deg_150                                              1     1      0     579
   675 ;;                                             13 COMMON     1     1      0
   676 ;;                             _rm_run
   677 ;;                             _bm_run
   678 ;;                       _mode_display
   679 ;; ---------------------------------------------------------------------------------
   680 ;; (2) _deg_30                                               1     1      0     579
   681 ;;                                             13 COMMON     1     1      0
   682 ;;                             _lm_run
   683 ;;                             _bm_run
   684 ;;                       _mode_display
   685 ;; ---------------------------------------------------------------------------------
   686 ;; (2) _deg_330                                              1     1      0     579
   687 ;;                                             13 COMMON     1     1      0
   688 ;;                             _rm_run
   689 ;;                             _bm_run
   690 ;;                       _mode_display
   691 ;; ---------------------------------------------------------------------------------
   692 ;; (2) _m_stop                                               1     1      0     491
   693 ;;                                             13 COMMON     1     1      0
   694 ;;                       _mode_display
   695 ;; ---------------------------------------------------------------------------------
   696 ;; (2) _clockwise                                            1     1      0     623
   697 ;;                                             13 COMMON     1     1      0
   698 ;;                             _lm_run
   699 ;;                             _rm_run
   700 ;;                             _bm_run
   701 ;;                       _mode_display
   702 ;; ---------------------------------------------------------------------------------
   703 ;; (2) _deg_180                                              1     1      0     579
   704 ;;                                             13 COMMON     1     1      0
   705 ;;                             _lm_run
   706 ;;                             _rm_run
   707 ;;                       _mode_display
   708 ;; ---------------------------------------------------------------------------------
   709 ;; (2) _deg_90                                               1     1      0     623
   710 ;;                                             13 COMMON     1     1      0
   711 ;;                             _lm_run
   712 ;;                             _rm_run
   713 ;;                             _bm_run
   714 ;;                       _mode_display
   715 ;; ---------------------------------------------------------------------------------
   716 ;; (2) _deg_0                                                1     1      0     579
   717 ;;                                             13 COMMON     1     1      0
   718 ;;                             _lm_run
   719 ;;                             _rm_run
   720 ;;                       _mode_display
   721 ;; ---------------------------------------------------------------------------------
   722 ;; (2) _deg_270                                              1     1      0     623
   723 ;;                                             13 COMMON     1     1      0
   724 ;;                             _lm_run
   725 ;;                             _rm_run
   726 ;;                             _bm_run
   727 ;;                       _mode_display
   728 ;; ---------------------------------------------------------------------------------
   729 ;; (3) _mode_display                                         2     1      1     491
   730 ;;                                             11 COMMON     2     1      1
   731 ;;                            _lcd_clr
   732 ;;                           _lcd_goto
   733 ;;                        _send_string
   734 ;;                              _delay
   735 ;; ---------------------------------------------------------------------------------
   736 ;; (1) _shift_display                                        1     1      0     514
   737 ;;                                             11 COMMON     1     1      0
   738 ;;                            _lcd_clr
   739 ;;                           _lcd_goto
   740 ;;                        _send_string
   741 ;;                        _send_config
   742 ;;                              _delay
   743 ;; ---------------------------------------------------------------------------------
   744 ;; (2) _send_string                                          2     2      0     134
   745 ;;                                              9 COMMON     2     2      0
   746 ;;                          _send_char
   747 ;; ---------------------------------------------------------------------------------
   748 ;; (2) _lcd_clr                                              0     0      0     112
   749 ;;                        _send_config
   750 ;;                              _delay
   751 ;; ---------------------------------------------------------------------------------
   752 ;; (2) _lcd_goto                                             2     2      0     156
   753 ;;                                              9 COMMON     2     2      0
   754 ;;                        _send_config
   755 ;; ---------------------------------------------------------------------------------
   756 ;; (3) _send_char                                            1     1      0      67
   757 ;;                                              8 COMMON     1     1      0
   758 ;;                              _delay
   759 ;; ---------------------------------------------------------------------------------
   760 ;; (2) _send_config                                          1     1      0      67
   761 ;;                                              8 COMMON     1     1      0
   762 ;;                              _delay
   763 ;; ---------------------------------------------------------------------------------
   764 ;; (3) _bm_run                                               1     1      0      44
   765 ;;                                              0 COMMON     1     1      0
   766 ;; ---------------------------------------------------------------------------------
   767 ;; (3) _rm_run                                               1     1      0      44
   768 ;;                                              0 COMMON     1     1      0
   769 ;; ---------------------------------------------------------------------------------
   770 ;; (3) _lm_run                                               1     1      0      44
   771 ;;                                              0 COMMON     1     1      0
   772 ;; ---------------------------------------------------------------------------------
   773 ;; (2) _delay                                                8     4      4      45
   774 ;;                                              0 COMMON     8     4      4
   775 ;; ---------------------------------------------------------------------------------
   776 ;; Estimated maximum stack depth 3
   777 ;; ---------------------------------------------------------------------------------
   778                           
   779 ;; Call Graph Graphs:
   780                           
   781 ;; _main (ROOT)
   782 ;;   _send_config
   783 ;;     _delay
   784 ;;   _delay
   785 ;;   _alphamode
   786 ;;     _deg_270
   787 ;;       _lm_run
   788 ;;       _rm_run
   789 ;;       _bm_run
   790 ;;       _mode_display
   791 ;;         _lcd_clr
   792 ;;           _send_config
   793 ;;             _delay
   794 ;;           _delay
   795 ;;         _lcd_goto
   796 ;;           _send_config
   797 ;;             _delay
   798 ;;         _send_string
   799 ;;           _send_char
   800 ;;             _delay
   801 ;;         _delay
   802 ;;     _delay
   803 ;;     _deg_0
   804 ;;       _lm_run
   805 ;;       _rm_run
   806 ;;       _mode_display
   807 ;;         _lcd_clr
   808 ;;           _send_config
   809 ;;             _delay
   810 ;;           _delay
   811 ;;         _lcd_goto
   812 ;;           _send_config
   813 ;;             _delay
   814 ;;         _send_string
   815 ;;           _send_char
   816 ;;             _delay
   817 ;;         _delay
   818 ;;     _deg_90
   819 ;;       _lm_run
   820 ;;       _rm_run
   821 ;;       _bm_run
   822 ;;       _mode_display
   823 ;;         _lcd_clr
   824 ;;           _send_config
   825 ;;             _delay
   826 ;;           _delay
   827 ;;         _lcd_goto
   828 ;;           _send_config
   829 ;;             _delay
   830 ;;         _send_string
   831 ;;           _send_char
   832 ;;             _delay
   833 ;;         _delay
   834 ;;     _deg_180
   835 ;;       _lm_run
   836 ;;       _rm_run
   837 ;;       _mode_display
   838 ;;         _lcd_clr
   839 ;;           _send_config
   840 ;;             _delay
   841 ;;           _delay
   842 ;;         _lcd_goto
   843 ;;           _send_config
   844 ;;             _delay
   845 ;;         _send_string
   846 ;;           _send_char
   847 ;;             _delay
   848 ;;         _delay
   849 ;;     _clockwise
   850 ;;       _lm_run
   851 ;;       _rm_run
   852 ;;       _bm_run
   853 ;;       _mode_display
   854 ;;         _lcd_clr
   855 ;;           _send_config
   856 ;;             _delay
   857 ;;           _delay
   858 ;;         _lcd_goto
   859 ;;           _send_config
   860 ;;             _delay
   861 ;;         _send_string
   862 ;;           _send_char
   863 ;;             _delay
   864 ;;         _delay
   865 ;;     _m_stop
   866 ;;       _mode_display
   867 ;;         _lcd_clr
   868 ;;           _send_config
   869 ;;             _delay
   870 ;;           _delay
   871 ;;         _lcd_goto
   872 ;;           _send_config
   873 ;;             _delay
   874 ;;         _send_string
   875 ;;           _send_char
   876 ;;             _delay
   877 ;;         _delay
   878 ;;   _betamode
   879 ;;     _deg_330
   880 ;;       _rm_run
   881 ;;       _bm_run
   882 ;;       _mode_display
   883 ;;         _lcd_clr
   884 ;;           _send_config
   885 ;;             _delay
   886 ;;           _delay
   887 ;;         _lcd_goto
   888 ;;           _send_config
   889 ;;             _delay
   890 ;;         _send_string
   891 ;;           _send_char
   892 ;;             _delay
   893 ;;         _delay
   894 ;;     _delay
   895 ;;     _deg_0
   896 ;;       _lm_run
   897 ;;       _rm_run
   898 ;;       _mode_display
   899 ;;         _lcd_clr
   900 ;;           _send_config
   901 ;;             _delay
   902 ;;           _delay
   903 ;;         _lcd_goto
   904 ;;           _send_config
   905 ;;             _delay
   906 ;;         _send_string
   907 ;;           _send_char
   908 ;;             _delay
   909 ;;         _delay
   910 ;;     _deg_30
   911 ;;       _lm_run
   912 ;;       _bm_run
   913 ;;       _mode_display
   914 ;;         _lcd_clr
   915 ;;           _send_config
   916 ;;             _delay
   917 ;;           _delay
   918 ;;         _lcd_goto
   919 ;;           _send_config
   920 ;;             _delay
   921 ;;         _send_string
   922 ;;           _send_char
   923 ;;             _delay
   924 ;;         _delay
   925 ;;     _deg_150
   926 ;;       _rm_run
   927 ;;       _bm_run
   928 ;;       _mode_display
   929 ;;         _lcd_clr
   930 ;;           _send_config
   931 ;;             _delay
   932 ;;           _delay
   933 ;;         _lcd_goto
   934 ;;           _send_config
   935 ;;             _delay
   936 ;;         _send_string
   937 ;;           _send_char
   938 ;;             _delay
   939 ;;         _delay
   940 ;;     _deg_180
   941 ;;       _lm_run
   942 ;;       _rm_run
   943 ;;       _mode_display
   944 ;;         _lcd_clr
   945 ;;           _send_config
   946 ;;             _delay
   947 ;;           _delay
   948 ;;         _lcd_goto
   949 ;;           _send_config
   950 ;;             _delay
   951 ;;         _send_string
   952 ;;           _send_char
   953 ;;             _delay
   954 ;;         _delay
   955 ;;     _deg_210
   956 ;;       _lm_run
   957 ;;       _bm_run
   958 ;;       _mode_display
   959 ;;         _lcd_clr
   960 ;;           _send_config
   961 ;;             _delay
   962 ;;           _delay
   963 ;;         _lcd_goto
   964 ;;           _send_config
   965 ;;             _delay
   966 ;;         _send_string
   967 ;;           _send_char
   968 ;;             _delay
   969 ;;         _delay
   970 ;;     _m_stop
   971 ;;       _mode_display
   972 ;;         _lcd_clr
   973 ;;           _send_config
   974 ;;             _delay
   975 ;;           _delay
   976 ;;         _lcd_goto
   977 ;;           _send_config
   978 ;;             _delay
   979 ;;         _send_string
   980 ;;           _send_char
   981 ;;             _delay
   982 ;;         _delay
   983 ;;   _shift_display
   984 ;;     _lcd_clr
   985 ;;       _send_config
   986 ;;         _delay
   987 ;;       _delay
   988 ;;     _lcd_goto
   989 ;;       _send_config
   990 ;;         _delay
   991 ;;     _send_string
   992 ;;       _send_char
   993 ;;         _delay
   994 ;;     _send_config
   995 ;;       _delay
   996 ;;     _delay
   997 ;;
   998                           
   999 ;; Address spaces:
  1000                           
  1001 ;;Name               Size   Autos  Total    Cost      Usage
  1002 ;;BITCOMMON            E      0       0       0        0.0%
  1003 ;;NULL                 0      0       0       0        0.0%
  1004 ;;CODE                 0      0       0       0        0.0%
  1005 ;;COMMON               E      E       E       1      100.0%
  1006 ;;BITSFR0              0      0       0       1        0.0%
  1007 ;;SFR0                 0      0       0       1        0.0%
  1008 ;;BITSFR1              0      0       0       2        0.0%
  1009 ;;SFR1                 0      0       0       2        0.0%
  1010 ;;STACK                0      0       6       2        0.0%
  1011 ;;ABS                  0      0      11       3        0.0%
  1012 ;;BITBANK0            50      0       0       4        0.0%
  1013 ;;BITSFR3              0      0       0       4        0.0%
  1014 ;;SFR3                 0      0       0       4        0.0%
  1015 ;;BANK0               50      1       3       5        3.8%
  1016 ;;BITSFR2              0      0       0       5        0.0%
  1017 ;;SFR2                 0      0       0       5        0.0%
  1018 ;;DATA                 0      0      17       6        0.0%
  1019 ;;BITBANK1            50      0       0       7        0.0%
  1020 ;;BANK1               50      0       0       8        0.0%
  1021 ;;BITBANK3            60      0       0       9        0.0%
  1022 ;;BANK3               60      0       0      10        0.0%
  1023 ;;BITBANK2            60      0       0      11        0.0%
  1024 ;;BANK2               60      0       0      12        0.0%
  1025                           
  1026                           	global	_main
  1027                           psect	maintext,global,class=CODE,delta=2
  1028                           global __pmaintext
  1029  0604                     __pmaintext:
  1030                           
  1031 ;; *************** function _main *****************
  1032 ;; Defined at:
  1033 ;;		line 77 in file "C:\Users\Phang\Desktop\9.80\PR 19\PR19.c"
  1034 ;; Parameters:    Size  Location     Type
  1035 ;;		None
  1036 ;; Auto vars:     Size  Location     Type
  1037 ;;		None
  1038 ;; Return value:  Size  Location     Type
  1039 ;;		None               void
  1040 ;; Registers used:
  1041 ;;		wreg, fsr0l, fsr0h, status,2, status,0, pclath, cstack
  1042 ;; Tracked objects:
  1043 ;;		On entry : 17F/0
  1044 ;;		On exit  : 0/0
  1045 ;;		Unchanged: 0/0
  1046 ;; Data sizes:     COMMON   BANK0   BANK1   BANK3   BANK2
  1047 ;;      Params:         0       0       0       0       0
  1048 ;;      Locals:         0       0       0       0       0
  1049 ;;      Temps:          0       1       0       0       0
  1050 ;;      Totals:         0       1       0       0       0
  1051 ;;Total ram usage:        1 bytes
  1052 ;; Hardware stack levels required when called:    6
  1053 ;; This function calls:
  1054 ;;		_send_config
  1055 ;;		_delay
  1056 ;;		_alphamode
  1057 ;;		_betamode
  1058 ;;		_shift_display
  1059 ;; This function is called by:
  1060 ;;		Startup code after reset
  1061 ;; This function uses a non-reentrant model
  1062 ;;
  1063                           psect	maintext
  1064                           	file	"C:\Users\Phang\Desktop\9.80\PR 19\PR19.c"
  1065                           	line	77
  1066                           	global	__size_of_main
  1067  00B4                     	__size_of_main	equ	__end_of_main-_main
  1068                           	
  1069  0604                     _main:	
  1070                           	opt	stack 2
  1071                           ; Regs used in _main: [wreg-fsr0h+status,2+status,0+pclath+cstack]
  1072                           	line	79
  1073                           	
  1074  0604                     l2771:	
  1075                           ;PR19.c: 79: ADCON1 = 0b00001111;
  1076  0604  300F               	movlw	(0Fh)
  1077  0605  1683               	bsf	status, 5	;RP0=1, select bank1
  1078  0606  1303               	bcf	status, 6	;RP1=0, select bank1
  1079  0607  009F               	movwf	(159)^080h	;volatile
  1080                           	line	82
  1081                           ;PR19.c: 82: TRISA = 0b00000011;
  1082  0608  3003               	movlw	(03h)
  1083  0609  0085               	movwf	(133)^080h	;volatile
  1084                           	line	83
  1085                           	
  1086  060A                     l2773:	
  1087                           ;PR19.c: 83: TRISB = 0b00000000;
  1088  060A  0186               	clrf	(134)^080h	;volatile
  1089                           	line	84
  1090                           	
  1091  060B                     l2775:	
  1092                           ;PR19.c: 84: TRISC = 0b00000000;
  1093  060B  0187               	clrf	(135)^080h	;volatile
  1094                           	line	85
  1095                           	
  1096  060C                     l2777:	
  1097                           ;PR19.c: 85: TRISD = 0b00000000;
  1098  060C  0188               	clrf	(136)^080h	;volatile
  1099                           	line	86
  1100                           	
  1101  060D                     l2779:	
  1102                           ;PR19.c: 86: PORTB = 0x00;
  1103  060D  1283               	bcf	status, 5	;RP0=0, select bank0
  1104  060E  1303               	bcf	status, 6	;RP1=0, select bank0
  1105  060F  0186               	clrf	(6)	;volatile
  1106                           	line	87
  1107                           	
  1108  0610                     l2781:	
  1109                           ;PR19.c: 87: PORTC = 0x00;
  1110  0610  0187               	clrf	(7)	;volatile
  1111                           	line	88
  1112                           	
  1113  0611                     l2783:	
  1114                           ;PR19.c: 88: PORTD = 0x00;
  1115  0611  0188               	clrf	(8)	;volatile
  1116                           	line	91
  1117                           	
  1118  0612                     l2785:	
  1119                           ;PR19.c: 91: send_config(0b00000001);
  1120  0612  3001               	movlw	(01h)
  1121  0613  120A  118A  23A8   	fcall	_send_config
              120A  118A         
  1122                           	line	92
  1123                           	
  1124  0618                     l2787:	
  1125                           ;PR19.c: 92: send_config(0b00000010);
  1126  0618  3002               	movlw	(02h)
  1127  0619  120A  118A  23A8   	fcall	_send_config
              120A  118A         
  1128                           	line	93
  1129                           	
  1130  061E                     l2789:	
  1131                           ;PR19.c: 93: send_config(0b00000110);
  1132  061E  3006               	movlw	(06h)
  1133  061F  120A  118A  23A8   	fcall	_send_config
              120A  118A         
  1134                           	line	94
  1135                           	
  1136  0624                     l2791:	
  1137                           ;PR19.c: 94: send_config(0b00001100);
  1138  0624  300C               	movlw	(0Ch)
  1139  0625  120A  118A  23A8   	fcall	_send_config
              120A  118A         
  1140                           	line	95
  1141                           	
  1142  062A                     l2793:	
  1143                           ;PR19.c: 95: send_config(0b00111000);
  1144  062A  3038               	movlw	(038h)
  1145  062B  120A  118A  23A8   	fcall	_send_config
              120A  118A         
  1146                           	line	96
  1147                           	
  1148  0630                     l2795:	
  1149                           ;PR19.c: 96: RA2=1;
  1150  0630  1283               	bcf	status, 5	;RP0=0, select bank0
  1151  0631  1303               	bcf	status, 6	;RP1=0, select bank0
  1152  0632  1505               	bsf	(42/8),(42)&7
  1153                           	line	99
  1154                           	
  1155  0633                     l2797:	
  1156                           ;PR19.c: 99: PR2=255;
  1157  0633  30FF               	movlw	(0FFh)
  1158  0634  1683               	bsf	status, 5	;RP0=1, select bank1
  1159  0635  1303               	bcf	status, 6	;RP1=0, select bank1
  1160  0636  0092               	movwf	(146)^080h	;volatile
  1161                           	line	100
  1162                           	
  1163  0637                     l2799:	
  1164                           ;PR19.c: 100: CCP1CON = 0b00001100;
  1165  0637  300C               	movlw	(0Ch)
  1166  0638  1283               	bcf	status, 5	;RP0=0, select bank0
  1167  0639  1303               	bcf	status, 6	;RP1=0, select bank0
  1168  063A  0097               	movwf	(23)	;volatile
  1169                           	line	101
  1170                           	
  1171  063B                     l2801:	
  1172                           ;PR19.c: 101: CCP2CON = 0b00001100;
  1173  063B  300C               	movlw	(0Ch)
  1174  063C  009D               	movwf	(29)	;volatile
  1175                           	line	102
  1176                           	
  1177  063D                     l2803:	
  1178                           ;PR19.c: 102: CCP3CON = 0b00001100;
  1179  063D  300C               	movlw	(0Ch)
  1180  063E  1683               	bsf	status, 5	;RP0=1, select bank1
  1181  063F  1303               	bcf	status, 6	;RP1=0, select bank1
  1182  0640  0097               	movwf	(151)^080h	;volatile
  1183                           	line	103
  1184                           	
  1185  0641                     l2805:	
  1186                           ;PR19.c: 103: T2CON = 0b00000100;
  1187  0641  3004               	movlw	(04h)
  1188  0642  1283               	bcf	status, 5	;RP0=0, select bank0
  1189  0643  1303               	bcf	status, 6	;RP1=0, select bank0
  1190  0644  0092               	movwf	(18)	;volatile
  1191                           	line	104
  1192                           	
  1193  0645                     l2807:	
  1194                           ;PR19.c: 104: CCPR1L = 0;
  1195  0645  0195               	clrf	(21)	;volatile
  1196                           	line	105
  1197                           	
  1198  0646                     l2809:	
  1199                           ;PR19.c: 105: CCPR2L = 0;
  1200  0646  019B               	clrf	(27)	;volatile
  1201                           	line	106
  1202                           	
  1203  0647                     l2811:	
  1204                           ;PR19.c: 106: CCPR3L = 0;
  1205  0647  1683               	bsf	status, 5	;RP0=1, select bank1
  1206  0648  1303               	bcf	status, 6	;RP1=0, select bank1
  1207  0649  0195               	clrf	(149)^080h	;volatile
  1208  064A  2E4B               	goto	l2813
  1209                           	line	109
  1210                           ;PR19.c: 109: while(1)
  1211                           	
  1212  064B                     l703:	
  1213                           	line	111
  1214                           	
  1215  064B                     l2813:	
  1216                           ;PR19.c: 110: {
  1217                           ;PR19.c: 111: if(RA0 == 0)
  1218  064B  1283               	bcf	status, 5	;RP0=0, select bank0
  1219  064C  1303               	bcf	status, 6	;RP1=0, select bank0
  1220  064D  1805               	btfsc	(40/8),(40)&7
  1221  064E  2E50               	goto	u2851
  1222  064F  2E51               	goto	u2850
  1223  0650                     u2851:
  1224  0650  2E78               	goto	l704
  1225  0651                     u2850:
  1226                           	line	113
  1227                           	
  1228  0651                     l2815:	
  1229                           ;PR19.c: 112: {
  1230                           ;PR19.c: 113: i+=1;
  1231  0651  3001               	movlw	(01h)
  1232  0652  00A2               	movwf	(??_main+0)+0
  1233  0653  0822               	movf	(??_main+0)+0,w
  1234  0654  07A0               	addwf	(_i),f
  1235                           	line	114
  1236                           	
  1237  0655                     l2817:	
  1238                           ;PR19.c: 114: if(i==3)i=0;
  1239  0655  0820               	movf	(_i),w
  1240  0656  3A03               	xorlw	03h
  1241  0657  1D03               	skipz
  1242  0658  2E5A               	goto	u2861
  1243  0659  2E5B               	goto	u2860
  1244  065A                     u2861:
  1245  065A  2E71               	goto	l2823
  1246  065B                     u2860:
  1247                           	
  1248  065B                     l2819:	
  1249  065B  1003               	clrc
  1250  065C  3000               	movlw	0
  1251  065D  1803               	btfsc	status,0
  1252  065E  3001               	movlw	1
  1253  065F  00A0               	movwf	(_i)
  1254  0660  2E71               	goto	l2823
  1255                           	
  1256  0661                     l705:	
  1257                           	line	115
  1258                           ;PR19.c: 115: while(RA0 == 0)
  1259  0661  2E71               	goto	l2823
  1260                           	
  1261  0662                     l707:	
  1262                           	line	117
  1263                           ;PR19.c: 116: {
  1264                           ;PR19.c: 117: RA3=1;
  1265  0662  1585               	bsf	(43/8),(43)&7
  1266                           	line	118
  1267                           	
  1268  0663                     l2821:	
  1269                           ;PR19.c: 118: delay(10000);
  1270  0663  3000               	movlw	0
  1271  0664  00F3               	movwf	(?_delay+3)
  1272  0665  3000               	movlw	0
  1273  0666  00F2               	movwf	(?_delay+2)
  1274  0667  3027               	movlw	027h
  1275  0668  00F1               	movwf	(?_delay+1)
  1276  0669  3010               	movlw	010h
  1277  066A  00F0               	movwf	(?_delay)
  1278                           
  1279  066B  120A  118A  248B   	fcall	_delay
              120A  118A         
  1280  0670  2E71               	goto	l2823
  1281                           	line	119
  1282                           	
  1283  0671                     l706:	
  1284                           	line	115
  1285                           	
  1286  0671                     l2823:	
  1287  0671  1283               	bcf	status, 5	;RP0=0, select bank0
  1288  0672  1303               	bcf	status, 6	;RP1=0, select bank0
  1289  0673  1C05               	btfss	(40/8),(40)&7
  1290  0674  2E76               	goto	u2871
  1291  0675  2E77               	goto	u2870
  1292  0676                     u2871:
  1293  0676  2E62               	goto	l707
  1294  0677                     u2870:
  1295  0677  2E78               	goto	l704
  1296                           	
  1297  0678                     l708:	
  1298                           	line	120
  1299                           	
  1300  0678                     l704:	
  1301                           	line	121
  1302                           ;PR19.c: 119: }
  1303                           ;PR19.c: 120: }
  1304                           ;PR19.c: 121: if(RA1 == 0)
  1305  0678  1885               	btfsc	(41/8),(41)&7
  1306  0679  2E7B               	goto	u2881
  1307  067A  2E7C               	goto	u2880
  1308  067B                     u2881:
  1309  067B  2EAB               	goto	l709
  1310  067C                     u2880:
  1311  067C  2E8D               	goto	l2829
  1312                           	line	123
  1313                           	
  1314  067D                     l2825:	
  1315                           ;PR19.c: 122: {
  1316                           ;PR19.c: 123: while(RA1 == 0)
  1317  067D  2E8D               	goto	l2829
  1318                           	
  1319  067E                     l711:	
  1320                           	line	125
  1321                           ;PR19.c: 124: {
  1322                           ;PR19.c: 125: RA3=1;
  1323  067E  1585               	bsf	(43/8),(43)&7
  1324                           	line	126
  1325                           	
  1326  067F                     l2827:	
  1327                           ;PR19.c: 126: delay(10000);
  1328  067F  3000               	movlw	0
  1329  0680  00F3               	movwf	(?_delay+3)
  1330  0681  3000               	movlw	0
  1331  0682  00F2               	movwf	(?_delay+2)
  1332  0683  3027               	movlw	027h
  1333  0684  00F1               	movwf	(?_delay+1)
  1334  0685  3010               	movlw	010h
  1335  0686  00F0               	movwf	(?_delay)
  1336                           
  1337  0687  120A  118A  248B   	fcall	_delay
              120A  118A         
  1338  068C  2E8D               	goto	l2829
  1339                           	line	127
  1340                           	
  1341  068D                     l710:	
  1342                           	line	123
  1343                           	
  1344  068D                     l2829:	
  1345  068D  1283               	bcf	status, 5	;RP0=0, select bank0
  1346  068E  1303               	bcf	status, 6	;RP1=0, select bank0
  1347  068F  1C85               	btfss	(41/8),(41)&7
  1348  0690  2E92               	goto	u2891
  1349  0691  2E93               	goto	u2890
  1350  0692                     u2891:
  1351  0692  2E7E               	goto	l711
  1352  0693                     u2890:
  1353  0693  2EA1               	goto	l2835
  1354                           	
  1355  0694                     l712:	
  1356                           	line	128
  1357                           ;PR19.c: 127: }
  1358                           ;PR19.c: 128: switch(i)
  1359  0694  2EA1               	goto	l2835
  1360                           	line	130
  1361                           ;PR19.c: 129: {
  1362                           ;PR19.c: 130: case 1:alphamode();
  1363                           	
  1364  0695                     l714:	
  1365                           	
  1366  0695                     l2831:	
  1367  0695  120A  118A  24F0   	fcall	_alphamode
              120A  118A         
  1368                           	line	131
  1369                           ;PR19.c: 131: case 2:betamode();
  1370                           	
  1371  069A                     l715:	
  1372  069A  120A  118A  257A   	fcall	_betamode
              120A  118A         
  1373                           	line	132
  1374                           ;PR19.c: 132: break;
  1375  069F  2EAB               	goto	l709
  1376                           	line	133
  1377                           	
  1378  06A0                     l2833:	
  1379                           ;PR19.c: 133: }
  1380  06A0  2EAB               	goto	l709
  1381                           	line	128
  1382                           	
  1383  06A1                     l713:	
  1384                           	
  1385  06A1                     l2835:	
  1386  06A1  1283               	bcf	status, 5	;RP0=0, select bank0
  1387  06A2  1303               	bcf	status, 6	;RP1=0, select bank0
  1388  06A3  0820               	movf	(_i),w
  1389                           	; Switch size 1, requested type "space"
  1390                           ; Number of cases is 2, Range of values is 1 to 2
  1391                           ; switch strategies available:
  1392                           ; Name         Bytes Cycles
  1393                           ; simple_byte     7     4 (average)
  1394                           ; direct_byte    28    22 (fixed)
  1395                           ;	Chosen strategy is simple_byte
  1396                           
  1397  06A4  3A01               	xorlw	1^0	; case 1
  1398  06A5  1903               	skipnz
  1399  06A6  2E95               	goto	l2831
  1400  06A7  3A03               	xorlw	2^1	; case 2
  1401  06A8  1903               	skipnz
  1402  06A9  2E9A               	goto	l715
  1403  06AA  2EAB               	goto	l709
  1404                           
  1405                           	line	133
  1406                           	
  1407  06AB                     l716:	
  1408                           	line	134
  1409                           	
  1410  06AB                     l709:	
  1411                           	line	135
  1412                           ;PR19.c: 134: }
  1413                           ;PR19.c: 135: RA3=0;
  1414  06AB  1283               	bcf	status, 5	;RP0=0, select bank0
  1415  06AC  1303               	bcf	status, 6	;RP1=0, select bank0
  1416  06AD  1185               	bcf	(43/8),(43)&7
  1417                           	line	136
  1418                           	
  1419  06AE                     l2837:	
  1420                           ;PR19.c: 136: shift_display();
  1421  06AE  120A  118A  26B8   	fcall	_shift_display
              120A  118A         
  1422  06B3  2E4B               	goto	l2813
  1423                           	line	137
  1424                           	
  1425  06B4                     l717:	
  1426                           	line	109
  1427  06B4  2E4B               	goto	l2813
  1428                           	
  1429  06B5                     l718:	
  1430                           	line	138
  1431                           	
  1432  06B5                     l719:	
  1433                           	global	start
  1434  06B5  120A  118A  2800   	ljmp	start
  1435                           	opt stack 0
  1436                           GLOBAL	__end_of_main
  1437  06B8                     	__end_of_main:
  1438 ;; =============== function _main ends ============
  1439                           
  1440                           	signat	_main,88
  1441                           	global	_betamode
  1442                           psect	text573,local,class=CODE,delta=2
  1443                           global __ptext573
  1444  057A                     __ptext573:
  1445                           
  1446 ;; *************** function _betamode *****************
  1447 ;; Defined at:
  1448 ;;		line 166 in file "C:\Users\Phang\Desktop\9.80\PR 19\PR19.c"
  1449 ;; Parameters:    Size  Location     Type
  1450 ;;		None
  1451 ;; Auto vars:     Size  Location     Type
  1452 ;;		None
  1453 ;; Return value:  Size  Location     Type
  1454 ;;		None               void
  1455 ;; Registers used:
  1456 ;;		wreg, fsr0l, fsr0h, status,2, status,0, pclath, cstack
  1457 ;; Tracked objects:
  1458 ;;		On entry : 0/0
  1459 ;;		On exit  : 0/0
  1460 ;;		Unchanged: 0/0
  1461 ;; Data sizes:     COMMON   BANK0   BANK1   BANK3   BANK2
  1462 ;;      Params:         0       0       0       0       0
  1463 ;;      Locals:         0       0       0       0       0
  1464 ;;      Temps:          0       0       0       0       0
  1465 ;;      Totals:         0       0       0       0       0
  1466 ;;Total ram usage:        0 bytes
  1467 ;; Hardware stack levels used:    1
  1468 ;; Hardware stack levels required when called:    5
  1469 ;; This function calls:
  1470 ;;		_deg_330
  1471 ;;		_delay
  1472 ;;		_deg_0
  1473 ;;		_deg_30
  1474 ;;		_deg_150
  1475 ;;		_deg_180
  1476 ;;		_deg_210
  1477 ;;		_m_stop
  1478 ;; This function is called by:
  1479 ;;		_main
  1480 ;; This function uses a non-reentrant model
  1481 ;;
  1482                           psect	text573
  1483                           	file	"C:\Users\Phang\Desktop\9.80\PR 19\PR19.c"
  1484                           	line	166
  1485                           	global	__size_of_betamode
  1486  008A                     	__size_of_betamode	equ	__end_of_betamode-_betamode
  1487                           	
  1488  057A                     _betamode:	
  1489                           	opt	stack 2
  1490                           ; Regs used in _betamode: [wreg-fsr0h+status,2+status,0+pclath+cstack]
  1491                           	line	167
  1492                           	
  1493  057A                     l2747:	
  1494                           ;PR19.c: 167: while(i==2)
  1495  057A  2DFA               	goto	l2769
  1496                           	
  1497  057B                     l729:	
  1498                           	line	169
  1499                           	
  1500  057B                     l2749:	
  1501                           ;PR19.c: 168: {
  1502                           ;PR19.c: 169: deg_330();
  1503  057B  120A  118A  2328   	fcall	_deg_330
              120A  118A         
  1504                           	line	170
  1505                           	
  1506  0580                     l2751:	
  1507                           ;PR19.c: 170: delay(200000);
  1508  0580  3000               	movlw	0
  1509  0581  00F3               	movwf	(?_delay+3)
  1510  0582  3003               	movlw	03h
  1511  0583  00F2               	movwf	(?_delay+2)
  1512  0584  300D               	movlw	0Dh
  1513  0585  00F1               	movwf	(?_delay+1)
  1514  0586  3040               	movlw	040h
  1515  0587  00F0               	movwf	(?_delay)
  1516                           
  1517  0588  120A  118A  248B   	fcall	_delay
              120A  118A         
  1518                           	line	171
  1519                           	
  1520  058D                     l2753:	
  1521                           ;PR19.c: 171: deg_0();
  1522  058D  120A  118A  22EA   	fcall	_deg_0
              120A  118A         
  1523                           	line	172
  1524                           ;PR19.c: 172: delay(200000);
  1525  0592  3000               	movlw	0
  1526  0593  00F3               	movwf	(?_delay+3)
  1527  0594  3003               	movlw	03h
  1528  0595  00F2               	movwf	(?_delay+2)
  1529  0596  300D               	movlw	0Dh
  1530  0597  00F1               	movwf	(?_delay+1)
  1531  0598  3040               	movlw	040h
  1532  0599  00F0               	movwf	(?_delay)
  1533                           
  1534  059A  120A  118A  248B   	fcall	_delay
              120A  118A         
  1535                           	line	173
  1536                           	
  1537  059F                     l2755:	
  1538                           ;PR19.c: 173: deg_30();
  1539  059F  120A  118A  2348   	fcall	_deg_30
              120A  118A         
  1540                           	line	174
  1541                           	
  1542  05A4                     l2757:	
  1543                           ;PR19.c: 174: delay(200000);
  1544  05A4  3000               	movlw	0
  1545  05A5  00F3               	movwf	(?_delay+3)
  1546  05A6  3003               	movlw	03h
  1547  05A7  00F2               	movwf	(?_delay+2)
  1548  05A8  300D               	movlw	0Dh
  1549  05A9  00F1               	movwf	(?_delay+1)
  1550  05AA  3040               	movlw	040h
  1551  05AB  00F0               	movwf	(?_delay)
  1552                           
  1553  05AC  120A  118A  248B   	fcall	_delay
              120A  118A         
  1554                           	line	175
  1555                           ;PR19.c: 175: deg_150();
  1556  05B1  120A  118A  2368   	fcall	_deg_150
              120A  118A         
  1557                           	line	176
  1558                           	
  1559  05B6                     l2759:	
  1560                           ;PR19.c: 176: delay(200000);
  1561  05B6  3000               	movlw	0
  1562  05B7  00F3               	movwf	(?_delay+3)
  1563  05B8  3003               	movlw	03h
  1564  05B9  00F2               	movwf	(?_delay+2)
  1565  05BA  300D               	movlw	0Dh
  1566  05BB  00F1               	movwf	(?_delay+1)
  1567  05BC  3040               	movlw	040h
  1568  05BD  00F0               	movwf	(?_delay)
  1569                           
  1570  05BE  120A  118A  248B   	fcall	_delay
              120A  118A         
  1571                           	line	177
  1572                           	
  1573  05C3                     l2761:	
  1574                           ;PR19.c: 177: deg_180();
  1575  05C3  120A  118A  2309   	fcall	_deg_180
              120A  118A         
  1576                           	line	178
  1577                           ;PR19.c: 178: delay(200000);
  1578  05C8  3000               	movlw	0
  1579  05C9  00F3               	movwf	(?_delay+3)
  1580  05CA  3003               	movlw	03h
  1581  05CB  00F2               	movwf	(?_delay+2)
  1582  05CC  300D               	movlw	0Dh
  1583  05CD  00F1               	movwf	(?_delay+1)
  1584  05CE  3040               	movlw	040h
  1585  05CF  00F0               	movwf	(?_delay)
  1586                           
  1587  05D0  120A  118A  248B   	fcall	_delay
              120A  118A         
  1588                           	line	179
  1589                           	
  1590  05D5                     l2763:	
  1591                           ;PR19.c: 179: deg_210();
  1592  05D5  120A  118A  2388   	fcall	_deg_210
              120A  118A         
  1593                           	line	180
  1594                           	
  1595  05DA                     l2765:	
  1596                           ;PR19.c: 180: delay(200000);
  1597  05DA  3000               	movlw	0
  1598  05DB  00F3               	movwf	(?_delay+3)
  1599  05DC  3003               	movlw	03h
  1600  05DD  00F2               	movwf	(?_delay+2)
  1601  05DE  300D               	movlw	0Dh
  1602  05DF  00F1               	movwf	(?_delay+1)
  1603  05E0  3040               	movlw	040h
  1604  05E1  00F0               	movwf	(?_delay)
  1605                           
  1606  05E2  120A  118A  248B   	fcall	_delay
              120A  118A         
  1607                           	line	181
  1608                           ;PR19.c: 181: m_stop();
  1609  05E7  120A  118A  2261   	fcall	_m_stop
              120A  118A         
  1610                           	line	182
  1611                           	
  1612  05EC                     l2767:	
  1613                           ;PR19.c: 182: delay(500000);
  1614  05EC  3000               	movlw	0
  1615  05ED  00F3               	movwf	(?_delay+3)
  1616  05EE  3007               	movlw	07h
  1617  05EF  00F2               	movwf	(?_delay+2)
  1618  05F0  30A1               	movlw	0A1h
  1619  05F1  00F1               	movwf	(?_delay+1)
  1620  05F2  3020               	movlw	020h
  1621  05F3  00F0               	movwf	(?_delay)
  1622                           
  1623  05F4  120A  118A  248B   	fcall	_delay
              120A  118A         
  1624  05F9  2DFA               	goto	l2769
  1625                           	line	183
  1626                           	
  1627  05FA                     l728:	
  1628                           	line	167
  1629                           	
  1630  05FA                     l2769:	
  1631  05FA  1283               	bcf	status, 5	;RP0=0, select bank0
  1632  05FB  1303               	bcf	status, 6	;RP1=0, select bank0
  1633  05FC  0820               	movf	(_i),w
  1634  05FD  3A02               	xorlw	02h
  1635  05FE  1903               	skipnz
  1636  05FF  2E01               	goto	u2841
  1637  0600  2E02               	goto	u2840
  1638  0601                     u2841:
  1639  0601  2D7B               	goto	l2749
  1640  0602                     u2840:
  1641  0602  2E03               	goto	l731
  1642                           	
  1643  0603                     l730:	
  1644                           	line	184
  1645                           	
  1646  0603                     l731:	
  1647  0603  0008               	return
  1648                           	opt stack 0
  1649                           GLOBAL	__end_of_betamode
  1650  0604                     	__end_of_betamode:
  1651 ;; =============== function _betamode ends ============
  1652                           
  1653                           	signat	_betamode,88
  1654                           	global	_alphamode
  1655                           psect	text574,local,class=CODE,delta=2
  1656                           global __ptext574
  1657  04F0                     __ptext574:
  1658                           
  1659 ;; *************** function _alphamode *****************
  1660 ;; Defined at:
  1661 ;;		line 144 in file "C:\Users\Phang\Desktop\9.80\PR 19\PR19.c"
  1662 ;; Parameters:    Size  Location     Type
  1663 ;;		None
  1664 ;; Auto vars:     Size  Location     Type
  1665 ;;		None
  1666 ;; Return value:  Size  Location     Type
  1667 ;;		None               void
  1668 ;; Registers used:
  1669 ;;		wreg, fsr0l, fsr0h, status,2, status,0, pclath, cstack
  1670 ;; Tracked objects:
  1671 ;;		On entry : 0/0
  1672 ;;		On exit  : 0/0
  1673 ;;		Unchanged: 0/0
  1674 ;; Data sizes:     COMMON   BANK0   BANK1   BANK3   BANK2
  1675 ;;      Params:         0       0       0       0       0
  1676 ;;      Locals:         0       0       0       0       0
  1677 ;;      Temps:          0       0       0       0       0
  1678 ;;      Totals:         0       0       0       0       0
  1679 ;;Total ram usage:        0 bytes
  1680 ;; Hardware stack levels used:    1
  1681 ;; Hardware stack levels required when called:    5
  1682 ;; This function calls:
  1683 ;;		_deg_270
  1684 ;;		_delay
  1685 ;;		_deg_0
  1686 ;;		_deg_90
  1687 ;;		_deg_180
  1688 ;;		_clockwise
  1689 ;;		_m_stop
  1690 ;; This function is called by:
  1691 ;;		_main
  1692 ;; This function uses a non-reentrant model
  1693 ;;
  1694                           psect	text574
  1695                           	file	"C:\Users\Phang\Desktop\9.80\PR 19\PR19.c"
  1696                           	line	144
  1697                           	global	__size_of_alphamode
  1698  008A                     	__size_of_alphamode	equ	__end_of_alphamode-_alphamode
  1699                           	
  1700  04F0                     _alphamode:	
  1701                           	opt	stack 2
  1702                           ; Regs used in _alphamode: [wreg-fsr0h+status,2+status,0+pclath+cstack]
  1703                           	line	145
  1704                           	
  1705  04F0                     l2723:	
  1706                           ;PR19.c: 145: while(i==1)
  1707  04F0  2D70               	goto	l2745
  1708                           	
  1709  04F1                     l723:	
  1710                           	line	147
  1711                           	
  1712  04F1                     l2725:	
  1713                           ;PR19.c: 146: {
  1714                           ;PR19.c: 147: deg_270();
  1715  04F1  120A  118A  243D   	fcall	_deg_270
              120A  118A         
  1716                           	line	148
  1717                           	
  1718  04F6                     l2727:	
  1719                           ;PR19.c: 148: delay(200000);
  1720  04F6  3000               	movlw	0
  1721  04F7  00F3               	movwf	(?_delay+3)
  1722  04F8  3003               	movlw	03h
  1723  04F9  00F2               	movwf	(?_delay+2)
  1724  04FA  300D               	movlw	0Dh
  1725  04FB  00F1               	movwf	(?_delay+1)
  1726  04FC  3040               	movlw	040h
  1727  04FD  00F0               	movwf	(?_delay)
  1728                           
  1729  04FE  120A  118A  248B   	fcall	_delay
              120A  118A         
  1730                           	line	149
  1731                           	
  1732  0503                     l2729:	
  1733                           ;PR19.c: 149: deg_0();
  1734  0503  120A  118A  22EA   	fcall	_deg_0
              120A  118A         
  1735                           	line	150
  1736                           ;PR19.c: 150: delay(200000);
  1737  0508  3000               	movlw	0
  1738  0509  00F3               	movwf	(?_delay+3)
  1739  050A  3003               	movlw	03h
  1740  050B  00F2               	movwf	(?_delay+2)
  1741  050C  300D               	movlw	0Dh
  1742  050D  00F1               	movwf	(?_delay+1)
  1743  050E  3040               	movlw	040h
  1744  050F  00F0               	movwf	(?_delay)
  1745                           
  1746  0510  120A  118A  248B   	fcall	_delay
              120A  118A         
  1747                           	line	151
  1748                           	
  1749  0515                     l2731:	
  1750                           ;PR19.c: 151: deg_90();
  1751  0515  120A  118A  2464   	fcall	_deg_90
              120A  118A         
  1752                           	line	152
  1753                           	
  1754  051A                     l2733:	
  1755                           ;PR19.c: 152: delay(400000);
  1756  051A  3000               	movlw	0
  1757  051B  00F3               	movwf	(?_delay+3)
  1758  051C  3006               	movlw	06h
  1759  051D  00F2               	movwf	(?_delay+2)
  1760  051E  301A               	movlw	01Ah
  1761  051F  00F1               	movwf	(?_delay+1)
  1762  0520  3080               	movlw	080h
  1763  0521  00F0               	movwf	(?_delay)
  1764                           
  1765  0522  120A  118A  248B   	fcall	_delay
              120A  118A         
  1766                           	line	153
  1767                           ;PR19.c: 153: deg_180();
  1768  0527  120A  118A  2309   	fcall	_deg_180
              120A  118A         
  1769                           	line	154
  1770                           	
  1771  052C                     l2735:	
  1772                           ;PR19.c: 154: delay(200000);
  1773  052C  3000               	movlw	0
  1774  052D  00F3               	movwf	(?_delay+3)
  1775  052E  3003               	movlw	03h
  1776  052F  00F2               	movwf	(?_delay+2)
  1777  0530  300D               	movlw	0Dh
  1778  0531  00F1               	movwf	(?_delay+1)
  1779  0532  3040               	movlw	040h
  1780  0533  00F0               	movwf	(?_delay)
  1781                           
  1782  0534  120A  118A  248B   	fcall	_delay
              120A  118A         
  1783                           	line	155
  1784                           	
  1785  0539                     l2737:	
  1786                           ;PR19.c: 155: deg_270();
  1787  0539  120A  118A  243D   	fcall	_deg_270
              120A  118A         
  1788                           	line	156
  1789                           ;PR19.c: 156: delay(200000);
  1790  053E  3000               	movlw	0
  1791  053F  00F3               	movwf	(?_delay+3)
  1792  0540  3003               	movlw	03h
  1793  0541  00F2               	movwf	(?_delay+2)
  1794  0542  300D               	movlw	0Dh
  1795  0543  00F1               	movwf	(?_delay+1)
  1796  0544  3040               	movlw	040h
  1797  0545  00F0               	movwf	(?_delay)
  1798                           
  1799  0546  120A  118A  248B   	fcall	_delay
              120A  118A         
  1800                           	line	157
  1801                           	
  1802  054B                     l2739:	
  1803                           ;PR19.c: 157: clockwise();
  1804  054B  120A  118A  23F2   	fcall	_clockwise
              120A  118A         
  1805                           	line	158
  1806                           	
  1807  0550                     l2741:	
  1808                           ;PR19.c: 158: delay(100000);
  1809  0550  3000               	movlw	0
  1810  0551  00F3               	movwf	(?_delay+3)
  1811  0552  3001               	movlw	01h
  1812  0553  00F2               	movwf	(?_delay+2)
  1813  0554  3086               	movlw	086h
  1814  0555  00F1               	movwf	(?_delay+1)
  1815  0556  30A0               	movlw	0A0h
  1816  0557  00F0               	movwf	(?_delay)
  1817                           
  1818  0558  120A  118A  248B   	fcall	_delay
              120A  118A         
  1819                           	line	159
  1820                           ;PR19.c: 159: m_stop();
  1821  055D  120A  118A  2261   	fcall	_m_stop
              120A  118A         
  1822                           	line	160
  1823                           	
  1824  0562                     l2743:	
  1825                           ;PR19.c: 160: delay(500000);
  1826  0562  3000               	movlw	0
  1827  0563  00F3               	movwf	(?_delay+3)
  1828  0564  3007               	movlw	07h
  1829  0565  00F2               	movwf	(?_delay+2)
  1830  0566  30A1               	movlw	0A1h
  1831  0567  00F1               	movwf	(?_delay+1)
  1832  0568  3020               	movlw	020h
  1833  0569  00F0               	movwf	(?_delay)
  1834                           
  1835  056A  120A  118A  248B   	fcall	_delay
              120A  118A         
  1836  056F  2D70               	goto	l2745
  1837                           	line	161
  1838                           	
  1839  0570                     l722:	
  1840                           	line	145
  1841                           	
  1842  0570                     l2745:	
  1843  0570  1283               	bcf	status, 5	;RP0=0, select bank0
  1844  0571  1303               	bcf	status, 6	;RP1=0, select bank0
  1845  0572  0820               	movf	(_i),w
  1846  0573  3A01               	xorlw	01h
  1847  0574  1903               	skipnz
  1848  0575  2D77               	goto	u2831
  1849  0576  2D78               	goto	u2830
  1850  0577                     u2831:
  1851  0577  2CF1               	goto	l2725
  1852  0578                     u2830:
  1853  0578  2D79               	goto	l725
  1854                           	
  1855  0579                     l724:	
  1856                           	line	162
  1857                           	
  1858  0579                     l725:	
  1859  0579  0008               	return
  1860                           	opt stack 0
  1861                           GLOBAL	__end_of_alphamode
  1862  057A                     	__end_of_alphamode:
  1863 ;; =============== function _alphamode ends ============
  1864                           
  1865                           	signat	_alphamode,88
  1866                           	global	_deg_210
  1867                           psect	text575,local,class=CODE,delta=2
  1868                           global __ptext575
  1869  0388                     __ptext575:
  1870                           
  1871 ;; *************** function _deg_210 *****************
  1872 ;; Defined at:
  1873 ;;		line 290 in file "C:\Users\Phang\Desktop\9.80\PR 19\PR19.c"
  1874 ;; Parameters:    Size  Location     Type
  1875 ;;		None
  1876 ;; Auto vars:     Size  Location     Type
  1877 ;;		None
  1878 ;; Return value:  Size  Location     Type
  1879 ;;		None               void
  1880 ;; Registers used:
  1881 ;;		wreg, fsr0l, fsr0h, status,2, status,0, pclath, cstack
  1882 ;; Tracked objects:
  1883 ;;		On entry : 0/0
  1884 ;;		On exit  : 0/0
  1885 ;;		Unchanged: 0/0
  1886 ;; Data sizes:     COMMON   BANK0   BANK1   BANK3   BANK2
  1887 ;;      Params:         0       0       0       0       0
  1888 ;;      Locals:         0       0       0       0       0
  1889 ;;      Temps:          1       0       0       0       0
  1890 ;;      Totals:         1       0       0       0       0
  1891 ;;Total ram usage:        1 bytes
  1892 ;; Hardware stack levels used:    1
  1893 ;; Hardware stack levels required when called:    4
  1894 ;; This function calls:
  1895 ;;		_lm_run
  1896 ;;		_bm_run
  1897 ;;		_mode_display
  1898 ;; This function is called by:
  1899 ;;		_betamode
  1900 ;; This function uses a non-reentrant model
  1901 ;;
  1902                           psect	text575
  1903                           	file	"C:\Users\Phang\Desktop\9.80\PR 19\PR19.c"
  1904                           	line	290
  1905                           	global	__size_of_deg_210
  1906  0020                     	__size_of_deg_210	equ	__end_of_deg_210-_deg_210
  1907                           	
  1908  0388                     _deg_210:	
  1909                           	opt	stack 2
  1910                           ; Regs used in _deg_210: [wreg-fsr0h+status,2+status,0+pclath+cstack]
  1911                           	line	291
  1912                           	
  1913  0388                     l2711:	
  1914                           ;PR19.c: 291: CCPR1L=255;
  1915  0388  30FF               	movlw	(0FFh)
  1916  0389  1283               	bcf	status, 5	;RP0=0, select bank0
  1917  038A  1303               	bcf	status, 6	;RP1=0, select bank0
  1918  038B  0095               	movwf	(21)	;volatile
  1919                           	line	292
  1920                           	
  1921  038C                     l2713:	
  1922                           ;PR19.c: 292: CCPR2L=0;
  1923  038C  019B               	clrf	(27)	;volatile
  1924                           	line	293
  1925                           	
  1926  038D                     l2715:	
  1927                           ;PR19.c: 293: CCPR3L=255;
  1928  038D  30FF               	movlw	(0FFh)
  1929  038E  1683               	bsf	status, 5	;RP0=1, select bank1
  1930  038F  1303               	bcf	status, 6	;RP1=0, select bank1
  1931  0390  0095               	movwf	(149)^080h	;volatile
  1932                           	line	294
  1933                           	
  1934  0391                     l2717:	
  1935                           ;PR19.c: 294: lm_run(0);
  1936  0391  3000               	movlw	(0)
  1937  0392  120A  118A  2288   	fcall	_lm_run
              120A  118A         
  1938                           	line	295
  1939                           	
  1940  0397                     l2719:	
  1941                           ;PR19.c: 295: bm_run(1);
  1942  0397  3001               	movlw	(01h)
  1943  0398  120A  118A  22B6   	fcall	_bm_run
              120A  118A         
  1944                           	line	296
  1945                           	
  1946  039D                     l2721:	
  1947                           ;PR19.c: 296: mode_display("210","Degree");
  1948  039D  3040               	movlw	((STR_18-__stringbase))&0ffh
  1949  039E  00FD               	movwf	(??_deg_210+0)+0
  1950  039F  087D               	movf	(??_deg_210+0)+0,w
  1951  03A0  00FB               	movwf	(?_mode_display)
  1952  03A1  3057               	movlw	((STR_17-__stringbase))&0ffh
  1953  03A2  120A  118A  24BB   	fcall	_mode_display
              120A  118A         
  1954                           	line	297
  1955                           	
  1956  03A7                     l767:	
  1957  03A7  0008               	return
  1958                           	opt stack 0
  1959                           GLOBAL	__end_of_deg_210
  1960  03A8                     	__end_of_deg_210:
  1961 ;; =============== function _deg_210 ends ============
  1962                           
  1963                           	signat	_deg_210,88
  1964                           	global	_deg_150
  1965                           psect	text576,local,class=CODE,delta=2
  1966                           global __ptext576
  1967  0368                     __ptext576:
  1968                           
  1969 ;; *************** function _deg_150 *****************
  1970 ;; Defined at:
  1971 ;;		line 271 in file "C:\Users\Phang\Desktop\9.80\PR 19\PR19.c"
  1972 ;; Parameters:    Size  Location     Type
  1973 ;;		None
  1974 ;; Auto vars:     Size  Location     Type
  1975 ;;		None
  1976 ;; Return value:  Size  Location     Type
  1977 ;;		None               void
  1978 ;; Registers used:
  1979 ;;		wreg, fsr0l, fsr0h, status,2, status,0, pclath, cstack
  1980 ;; Tracked objects:
  1981 ;;		On entry : 0/0
  1982 ;;		On exit  : 0/0
  1983 ;;		Unchanged: 0/0
  1984 ;; Data sizes:     COMMON   BANK0   BANK1   BANK3   BANK2
  1985 ;;      Params:         0       0       0       0       0
  1986 ;;      Locals:         0       0       0       0       0
  1987 ;;      Temps:          1       0       0       0       0
  1988 ;;      Totals:         1       0       0       0       0
  1989 ;;Total ram usage:        1 bytes
  1990 ;; Hardware stack levels used:    1
  1991 ;; Hardware stack levels required when called:    4
  1992 ;; This function calls:
  1993 ;;		_rm_run
  1994 ;;		_bm_run
  1995 ;;		_mode_display
  1996 ;; This function is called by:
  1997 ;;		_betamode
  1998 ;; This function uses a non-reentrant model
  1999 ;;
  2000                           psect	text576
  2001                           	file	"C:\Users\Phang\Desktop\9.80\PR 19\PR19.c"
  2002                           	line	271
  2003                           	global	__size_of_deg_150
  2004  0020                     	__size_of_deg_150	equ	__end_of_deg_150-_deg_150
  2005                           	
  2006  0368                     _deg_150:	
  2007                           	opt	stack 2
  2008                           ; Regs used in _deg_150: [wreg-fsr0h+status,2+status,0+pclath+cstack]
  2009                           	line	272
  2010                           	
  2011  0368                     l2699:	
  2012                           ;PR19.c: 272: CCPR1L=0;
  2013  0368  1283               	bcf	status, 5	;RP0=0, select bank0
  2014  0369  1303               	bcf	status, 6	;RP1=0, select bank0
  2015  036A  0195               	clrf	(21)	;volatile
  2016                           	line	273
  2017                           	
  2018  036B                     l2701:	
  2019                           ;PR19.c: 273: CCPR2L=255;
  2020  036B  30FF               	movlw	(0FFh)
  2021  036C  009B               	movwf	(27)	;volatile
  2022                           	line	274
  2023                           	
  2024  036D                     l2703:	
  2025                           ;PR19.c: 274: CCPR3L=255;
  2026  036D  30FF               	movlw	(0FFh)
  2027  036E  1683               	bsf	status, 5	;RP0=1, select bank1
  2028  036F  1303               	bcf	status, 6	;RP1=0, select bank1
  2029  0370  0095               	movwf	(149)^080h	;volatile
  2030                           	line	275
  2031                           	
  2032  0371                     l2705:	
  2033                           ;PR19.c: 275: rm_run(1);
  2034  0371  3001               	movlw	(01h)
  2035  0372  120A  118A  229F   	fcall	_rm_run
              120A  118A         
  2036                           	line	276
  2037                           	
  2038  0377                     l2707:	
  2039                           ;PR19.c: 276: bm_run(0);
  2040  0377  3000               	movlw	(0)
  2041  0378  120A  118A  22B6   	fcall	_bm_run
              120A  118A         
  2042                           	line	277
  2043                           	
  2044  037D                     l2709:	
  2045                           ;PR19.c: 277: mode_display("150","Degree");
  2046  037D  3040               	movlw	((STR_14-__stringbase))&0ffh
  2047  037E  00FD               	movwf	(??_deg_150+0)+0
  2048  037F  087D               	movf	(??_deg_150+0)+0,w
  2049  0380  00FB               	movwf	(?_mode_display)
  2050  0381  3067               	movlw	((STR_13-__stringbase))&0ffh
  2051  0382  120A  118A  24BB   	fcall	_mode_display
              120A  118A         
  2052                           	line	278
  2053                           	
  2054  0387                     l761:	
  2055  0387  0008               	return
  2056                           	opt stack 0
  2057                           GLOBAL	__end_of_deg_150
  2058  0388                     	__end_of_deg_150:
  2059 ;; =============== function _deg_150 ends ============
  2060                           
  2061                           	signat	_deg_150,88
  2062                           	global	_deg_30
  2063                           psect	text577,local,class=CODE,delta=2
  2064                           global __ptext577
  2065  0348                     __ptext577:
  2066                           
  2067 ;; *************** function _deg_30 *****************
  2068 ;; Defined at:
  2069 ;;		line 228 in file "C:\Users\Phang\Desktop\9.80\PR 19\PR19.c"
  2070 ;; Parameters:    Size  Location     Type
  2071 ;;		None
  2072 ;; Auto vars:     Size  Location     Type
  2073 ;;		None
  2074 ;; Return value:  Size  Location     Type
  2075 ;;		None               void
  2076 ;; Registers used:
  2077 ;;		wreg, fsr0l, fsr0h, status,2, status,0, pclath, cstack
  2078 ;; Tracked objects:
  2079 ;;		On entry : 0/0
  2080 ;;		On exit  : 0/0
  2081 ;;		Unchanged: 0/0
  2082 ;; Data sizes:     COMMON   BANK0   BANK1   BANK3   BANK2
  2083 ;;      Params:         0       0       0       0       0
  2084 ;;      Locals:         0       0       0       0       0
  2085 ;;      Temps:          1       0       0       0       0
  2086 ;;      Totals:         1       0       0       0       0
  2087 ;;Total ram usage:        1 bytes
  2088 ;; Hardware stack levels used:    1
  2089 ;; Hardware stack levels required when called:    4
  2090 ;; This function calls:
  2091 ;;		_lm_run
  2092 ;;		_bm_run
  2093 ;;		_mode_display
  2094 ;; This function is called by:
  2095 ;;		_betamode
  2096 ;; This function uses a non-reentrant model
  2097 ;;
  2098                           psect	text577
  2099                           	file	"C:\Users\Phang\Desktop\9.80\PR 19\PR19.c"
  2100                           	line	228
  2101                           	global	__size_of_deg_30
  2102  0020                     	__size_of_deg_30	equ	__end_of_deg_30-_deg_30
  2103                           	
  2104  0348                     _deg_30:	
  2105                           	opt	stack 2
  2106                           ; Regs used in _deg_30: [wreg-fsr0h+status,2+status,0+pclath+cstack]
  2107                           	line	229
  2108                           	
  2109  0348                     l2687:	
  2110                           ;PR19.c: 229: CCPR1L=255;
  2111  0348  30FF               	movlw	(0FFh)
  2112  0349  1283               	bcf	status, 5	;RP0=0, select bank0
  2113  034A  1303               	bcf	status, 6	;RP1=0, select bank0
  2114  034B  0095               	movwf	(21)	;volatile
  2115                           	line	230
  2116                           	
  2117  034C                     l2689:	
  2118                           ;PR19.c: 230: CCPR2L=0;
  2119  034C  019B               	clrf	(27)	;volatile
  2120                           	line	231
  2121                           	
  2122  034D                     l2691:	
  2123                           ;PR19.c: 231: CCPR3L=255;
  2124  034D  30FF               	movlw	(0FFh)
  2125  034E  1683               	bsf	status, 5	;RP0=1, select bank1
  2126  034F  1303               	bcf	status, 6	;RP1=0, select bank1
  2127  0350  0095               	movwf	(149)^080h	;volatile
  2128                           	line	232
  2129                           	
  2130  0351                     l2693:	
  2131                           ;PR19.c: 232: lm_run(1);
  2132  0351  3001               	movlw	(01h)
  2133  0352  120A  118A  2288   	fcall	_lm_run
              120A  118A         
  2134                           	line	233
  2135                           	
  2136  0357                     l2695:	
  2137                           ;PR19.c: 233: bm_run(0);
  2138  0357  3000               	movlw	(0)
  2139  0358  120A  118A  22B6   	fcall	_bm_run
              120A  118A         
  2140                           	line	234
  2141                           	
  2142  035D                     l2697:	
  2143                           ;PR19.c: 234: mode_display("30","Degree");
  2144  035D  3040               	movlw	((STR_6-__stringbase))&0ffh
  2145  035E  00FD               	movwf	(??_deg_30+0)+0
  2146  035F  087D               	movf	(??_deg_30+0)+0,w
  2147  0360  00FB               	movwf	(?_mode_display)
  2148  0361  3060               	movlw	((STR_5-__stringbase))&0ffh
  2149  0362  120A  118A  24BB   	fcall	_mode_display
              120A  118A         
  2150                           	line	235
  2151                           	
  2152  0367                     l749:	
  2153  0367  0008               	return
  2154                           	opt stack 0
  2155                           GLOBAL	__end_of_deg_30
  2156  0368                     	__end_of_deg_30:
  2157 ;; =============== function _deg_30 ends ============
  2158                           
  2159                           	signat	_deg_30,88
  2160                           	global	_deg_330
  2161                           psect	text578,local,class=CODE,delta=2
  2162                           global __ptext578
  2163  0328                     __ptext578:
  2164                           
  2165 ;; *************** function _deg_330 *****************
  2166 ;; Defined at:
  2167 ;;		line 333 in file "C:\Users\Phang\Desktop\9.80\PR 19\PR19.c"
  2168 ;; Parameters:    Size  Location     Type
  2169 ;;		None
  2170 ;; Auto vars:     Size  Location     Type
  2171 ;;		None
  2172 ;; Return value:  Size  Location     Type
  2173 ;;		None               void
  2174 ;; Registers used:
  2175 ;;		wreg, fsr0l, fsr0h, status,2, status,0, pclath, cstack
  2176 ;; Tracked objects:
  2177 ;;		On entry : 0/0
  2178 ;;		On exit  : 0/0
  2179 ;;		Unchanged: 0/0
  2180 ;; Data sizes:     COMMON   BANK0   BANK1   BANK3   BANK2
  2181 ;;      Params:         0       0       0       0       0
  2182 ;;      Locals:         0       0       0       0       0
  2183 ;;      Temps:          1       0       0       0       0
  2184 ;;      Totals:         1       0       0       0       0
  2185 ;;Total ram usage:        1 bytes
  2186 ;; Hardware stack levels used:    1
  2187 ;; Hardware stack levels required when called:    4
  2188 ;; This function calls:
  2189 ;;		_rm_run
  2190 ;;		_bm_run
  2191 ;;		_mode_display
  2192 ;; This function is called by:
  2193 ;;		_betamode
  2194 ;; This function uses a non-reentrant model
  2195 ;;
  2196                           psect	text578
  2197                           	file	"C:\Users\Phang\Desktop\9.80\PR 19\PR19.c"
  2198                           	line	333
  2199                           	global	__size_of_deg_330
  2200  0020                     	__size_of_deg_330	equ	__end_of_deg_330-_deg_330
  2201                           	
  2202  0328                     _deg_330:	
  2203                           	opt	stack 2
  2204                           ; Regs used in _deg_330: [wreg-fsr0h+status,2+status,0+pclath+cstack]
  2205                           	line	334
  2206                           	
  2207  0328                     l2675:	
  2208                           ;PR19.c: 334: CCPR1L=0;
  2209  0328  1283               	bcf	status, 5	;RP0=0, select bank0
  2210  0329  1303               	bcf	status, 6	;RP1=0, select bank0
  2211  032A  0195               	clrf	(21)	;volatile
  2212                           	line	335
  2213                           	
  2214  032B                     l2677:	
  2215                           ;PR19.c: 335: CCPR2L=255;
  2216  032B  30FF               	movlw	(0FFh)
  2217  032C  009B               	movwf	(27)	;volatile
  2218                           	line	336
  2219                           	
  2220  032D                     l2679:	
  2221                           ;PR19.c: 336: CCPR3L=255;
  2222  032D  30FF               	movlw	(0FFh)
  2223  032E  1683               	bsf	status, 5	;RP0=1, select bank1
  2224  032F  1303               	bcf	status, 6	;RP1=0, select bank1
  2225  0330  0095               	movwf	(149)^080h	;volatile
  2226                           	line	337
  2227                           	
  2228  0331                     l2681:	
  2229                           ;PR19.c: 337: rm_run(0);
  2230  0331  3000               	movlw	(0)
  2231  0332  120A  118A  229F   	fcall	_rm_run
              120A  118A         
  2232                           	line	338
  2233                           	
  2234  0337                     l2683:	
  2235                           ;PR19.c: 338: bm_run(1);
  2236  0337  3001               	movlw	(01h)
  2237  0338  120A  118A  22B6   	fcall	_bm_run
              120A  118A         
  2238                           	line	339
  2239                           	
  2240  033D                     l2685:	
  2241                           ;PR19.c: 339: mode_display("330","Degree");
  2242  033D  3040               	movlw	((STR_26-__stringbase))&0ffh
  2243  033E  00FD               	movwf	(??_deg_330+0)+0
  2244  033F  087D               	movf	(??_deg_330+0)+0,w
  2245  0340  00FB               	movwf	(?_mode_display)
  2246  0341  305F               	movlw	((STR_25-__stringbase))&0ffh
  2247  0342  120A  118A  24BB   	fcall	_mode_display
              120A  118A         
  2248                           	line	340
  2249                           	
  2250  0347                     l779:	
  2251  0347  0008               	return
  2252                           	opt stack 0
  2253                           GLOBAL	__end_of_deg_330
  2254  0348                     	__end_of_deg_330:
  2255 ;; =============== function _deg_330 ends ============
  2256                           
  2257                           	signat	_deg_330,88
  2258                           	global	_m_stop
  2259                           psect	text579,local,class=CODE,delta=2
  2260                           global __ptext579
  2261  0261                     __ptext579:
  2262                           
  2263 ;; *************** function _m_stop *****************
  2264 ;; Defined at:
  2265 ;;		line 189 in file "C:\Users\Phang\Desktop\9.80\PR 19\PR19.c"
  2266 ;; Parameters:    Size  Location     Type
  2267 ;;		None
  2268 ;; Auto vars:     Size  Location     Type
  2269 ;;		None
  2270 ;; Return value:  Size  Location     Type
  2271 ;;		None               void
  2272 ;; Registers used:
  2273 ;;		wreg, fsr0l, fsr0h, status,2, status,0, pclath, cstack
  2274 ;; Tracked objects:
  2275 ;;		On entry : 0/0
  2276 ;;		On exit  : 0/0
  2277 ;;		Unchanged: 0/0
  2278 ;; Data sizes:     COMMON   BANK0   BANK1   BANK3   BANK2
  2279 ;;      Params:         0       0       0       0       0
  2280 ;;      Locals:         0       0       0       0       0
  2281 ;;      Temps:          1       0       0       0       0
  2282 ;;      Totals:         1       0       0       0       0
  2283 ;;Total ram usage:        1 bytes
  2284 ;; Hardware stack levels used:    1
  2285 ;; Hardware stack levels required when called:    4
  2286 ;; This function calls:
  2287 ;;		_mode_display
  2288 ;; This function is called by:
  2289 ;;		_alphamode
  2290 ;;		_betamode
  2291 ;; This function uses a non-reentrant model
  2292 ;;
  2293                           psect	text579
  2294                           	file	"C:\Users\Phang\Desktop\9.80\PR 19\PR19.c"
  2295                           	line	189
  2296                           	global	__size_of_m_stop
  2297  0013                     	__size_of_m_stop	equ	__end_of_m_stop-_m_stop
  2298                           	
  2299  0261                     _m_stop:	
  2300                           	opt	stack 2
  2301                           ; Regs used in _m_stop: [wreg-fsr0h+status,2+status,0+pclath+cstack]
  2302                           	line	190
  2303                           	
  2304  0261                     l2671:	
  2305                           ;PR19.c: 190: RC0=0;
  2306  0261  1283               	bcf	status, 5	;RP0=0, select bank0
  2307  0262  1303               	bcf	status, 6	;RP1=0, select bank0
  2308  0263  1007               	bcf	(56/8),(56)&7
  2309                           	line	191
  2310                           ;PR19.c: 191: RC3=0;
  2311  0264  1187               	bcf	(59/8),(59)&7
  2312                           	line	192
  2313                           ;PR19.c: 192: RC4=0;
  2314  0265  1207               	bcf	(60/8),(60)&7
  2315                           	line	193
  2316                           ;PR19.c: 193: RC5=0;
  2317  0266  1287               	bcf	(61/8),(61)&7
  2318                           	line	194
  2319                           ;PR19.c: 194: RB3=0;
  2320  0267  1186               	bcf	(51/8),(51)&7
  2321                           	line	195
  2322                           ;PR19.c: 195: RB4=0;
  2323  0268  1206               	bcf	(52/8),(52)&7
  2324                           	line	196
  2325                           	
  2326  0269                     l2673:	
  2327                           ;PR19.c: 196: mode_display("Flexibot","Stop");
  2328  0269  304E               	movlw	((STR_2-__stringbase))&0ffh
  2329  026A  00FD               	movwf	(??_m_stop+0)+0
  2330  026B  087D               	movf	(??_m_stop+0)+0,w
  2331  026C  00FB               	movwf	(?_mode_display)
  2332  026D  3008               	movlw	((STR_1-__stringbase))&0ffh
  2333  026E  120A  118A  24BB   	fcall	_mode_display
              120A  118A         
  2334                           	line	197
  2335                           	
  2336  0273                     l734:	
  2337  0273  0008               	return
  2338                           	opt stack 0
  2339                           GLOBAL	__end_of_m_stop
  2340  0274                     	__end_of_m_stop:
  2341 ;; =============== function _m_stop ends ============
  2342                           
  2343                           	signat	_m_stop,88
  2344                           	global	_clockwise
  2345                           psect	text580,local,class=CODE,delta=2
  2346                           global __ptext580
  2347  03F2                     __ptext580:
  2348                           
  2349 ;; *************** function _clockwise *****************
  2350 ;; Defined at:
  2351 ;;		line 343 in file "C:\Users\Phang\Desktop\9.80\PR 19\PR19.c"
  2352 ;; Parameters:    Size  Location     Type
  2353 ;;		None
  2354 ;; Auto vars:     Size  Location     Type
  2355 ;;		None
  2356 ;; Return value:  Size  Location     Type
  2357 ;;		None               void
  2358 ;; Registers used:
  2359 ;;		wreg, fsr0l, fsr0h, status,2, status,0, pclath, cstack
  2360 ;; Tracked objects:
  2361 ;;		On entry : 0/0
  2362 ;;		On exit  : 0/0
  2363 ;;		Unchanged: 0/0
  2364 ;; Data sizes:     COMMON   BANK0   BANK1   BANK3   BANK2
  2365 ;;      Params:         0       0       0       0       0
  2366 ;;      Locals:         0       0       0       0       0
  2367 ;;      Temps:          1       0       0       0       0
  2368 ;;      Totals:         1       0       0       0       0
  2369 ;;Total ram usage:        1 bytes
  2370 ;; Hardware stack levels used:    1
  2371 ;; Hardware stack levels required when called:    4
  2372 ;; This function calls:
  2373 ;;		_lm_run
  2374 ;;		_rm_run
  2375 ;;		_bm_run
  2376 ;;		_mode_display
  2377 ;; This function is called by:
  2378 ;;		_alphamode
  2379 ;; This function uses a non-reentrant model
  2380 ;;
  2381                           psect	text580
  2382                           	file	"C:\Users\Phang\Desktop\9.80\PR 19\PR19.c"
  2383                           	line	343
  2384                           	global	__size_of_clockwise
  2385  0025                     	__size_of_clockwise	equ	__end_of_clockwise-_clockwise
  2386                           	
  2387  03F2                     _clockwise:	
  2388                           	opt	stack 2
  2389                           ; Regs used in _clockwise: [wreg-fsr0h+status,2+status,0+pclath+cstack]
  2390                           	line	344
  2391                           	
  2392  03F2                     l2661:	
  2393                           ;PR19.c: 344: CCPR1L=CCPR2L=CCPR3L=255;
  2394  03F2  30FF               	movlw	(0FFh)
  2395  03F3  1683               	bsf	status, 5	;RP0=1, select bank1
  2396  03F4  1303               	bcf	status, 6	;RP1=0, select bank1
  2397  03F5  0095               	movwf	(149)^080h	;volatile
  2398  03F6  1283               	bcf	status, 5	;RP0=0, select bank0
  2399  03F7  1303               	bcf	status, 6	;RP1=0, select bank0
  2400  03F8  009B               	movwf	(27)	;volatile
  2401  03F9  0095               	movwf	(21)	;volatile
  2402                           	line	345
  2403                           	
  2404  03FA                     l2663:	
  2405                           ;PR19.c: 345: lm_run(1);
  2406  03FA  3001               	movlw	(01h)
  2407  03FB  120A  118A  2288   	fcall	_lm_run
              120A  118A         
  2408                           	line	346
  2409                           	
  2410  0400                     l2665:	
  2411                           ;PR19.c: 346: rm_run(1);
  2412  0400  3001               	movlw	(01h)
  2413  0401  120A  118A  229F   	fcall	_rm_run
              120A  118A         
  2414                           	line	347
  2415                           	
  2416  0406                     l2667:	
  2417                           ;PR19.c: 347: bm_run(1);
  2418  0406  3001               	movlw	(01h)
  2419  0407  120A  118A  22B6   	fcall	_bm_run
              120A  118A         
  2420                           	line	348
  2421                           	
  2422  040C                     l2669:	
  2423                           ;PR19.c: 348: mode_display("Clockwise","");
  2424  040C  3056               	movlw	((STR_28-__stringbase))&0ffh
  2425  040D  00FD               	movwf	(??_clockwise+0)+0
  2426  040E  087D               	movf	(??_clockwise+0)+0,w
  2427  040F  00FB               	movwf	(?_mode_display)
  2428  0410  3036               	movlw	((STR_27-__stringbase))&0ffh
  2429  0411  120A  118A  24BB   	fcall	_mode_display
              120A  118A         
  2430                           	line	349
  2431                           	
  2432  0416                     l782:	
  2433  0416  0008               	return
  2434                           	opt stack 0
  2435                           GLOBAL	__end_of_clockwise
  2436  0417                     	__end_of_clockwise:
  2437 ;; =============== function _clockwise ends ============
  2438                           
  2439                           	signat	_clockwise,88
  2440                           	global	_deg_180
  2441                           psect	text581,local,class=CODE,delta=2
  2442                           global __ptext581
  2443  0309                     __ptext581:
  2444                           
  2445 ;; *************** function _deg_180 *****************
  2446 ;; Defined at:
  2447 ;;		line 281 in file "C:\Users\Phang\Desktop\9.80\PR 19\PR19.c"
  2448 ;; Parameters:    Size  Location     Type
  2449 ;;		None
  2450 ;; Auto vars:     Size  Location     Type
  2451 ;;		None
  2452 ;; Return value:  Size  Location     Type
  2453 ;;		None               void
  2454 ;; Registers used:
  2455 ;;		wreg, fsr0l, fsr0h, status,2, status,0, pclath, cstack
  2456 ;; Tracked objects:
  2457 ;;		On entry : 0/0
  2458 ;;		On exit  : 0/0
  2459 ;;		Unchanged: 0/0
  2460 ;; Data sizes:     COMMON   BANK0   BANK1   BANK3   BANK2
  2461 ;;      Params:         0       0       0       0       0
  2462 ;;      Locals:         0       0       0       0       0
  2463 ;;      Temps:          1       0       0       0       0
  2464 ;;      Totals:         1       0       0       0       0
  2465 ;;Total ram usage:        1 bytes
  2466 ;; Hardware stack levels used:    1
  2467 ;; Hardware stack levels required when called:    4
  2468 ;; This function calls:
  2469 ;;		_lm_run
  2470 ;;		_rm_run
  2471 ;;		_mode_display
  2472 ;; This function is called by:
  2473 ;;		_alphamode
  2474 ;;		_betamode
  2475 ;; This function uses a non-reentrant model
  2476 ;;
  2477                           psect	text581
  2478                           	file	"C:\Users\Phang\Desktop\9.80\PR 19\PR19.c"
  2479                           	line	281
  2480                           	global	__size_of_deg_180
  2481  001F                     	__size_of_deg_180	equ	__end_of_deg_180-_deg_180
  2482                           	
  2483  0309                     _deg_180:	
  2484                           	opt	stack 2
  2485                           ; Regs used in _deg_180: [wreg-fsr0h+status,2+status,0+pclath+cstack]
  2486                           	line	282
  2487                           	
  2488  0309                     l2651:	
  2489                           ;PR19.c: 282: CCPR1L=CCPR2L=255;
  2490  0309  30FF               	movlw	(0FFh)
  2491  030A  1283               	bcf	status, 5	;RP0=0, select bank0
  2492  030B  1303               	bcf	status, 6	;RP1=0, select bank0
  2493  030C  009B               	movwf	(27)	;volatile
  2494  030D  0095               	movwf	(21)	;volatile
  2495                           	line	283
  2496                           	
  2497  030E                     l2653:	
  2498                           ;PR19.c: 283: CCPR3L=0;
  2499  030E  1683               	bsf	status, 5	;RP0=1, select bank1
  2500  030F  1303               	bcf	status, 6	;RP1=0, select bank1
  2501  0310  0195               	clrf	(149)^080h	;volatile
  2502                           	line	284
  2503                           	
  2504  0311                     l2655:	
  2505                           ;PR19.c: 284: lm_run(0);
  2506  0311  3000               	movlw	(0)
  2507  0312  120A  118A  2288   	fcall	_lm_run
              120A  118A         
  2508                           	line	285
  2509                           	
  2510  0317                     l2657:	
  2511                           ;PR19.c: 285: rm_run(1);
  2512  0317  3001               	movlw	(01h)
  2513  0318  120A  118A  229F   	fcall	_rm_run
              120A  118A         
  2514                           	line	286
  2515                           	
  2516  031D                     l2659:	
  2517                           ;PR19.c: 286: mode_display("180","Degree");
  2518  031D  3040               	movlw	((STR_16-__stringbase))&0ffh
  2519  031E  00FD               	movwf	(??_deg_180+0)+0
  2520  031F  087D               	movf	(??_deg_180+0)+0,w
  2521  0320  00FB               	movwf	(?_mode_display)
  2522  0321  306F               	movlw	((STR_15-__stringbase))&0ffh
  2523  0322  120A  118A  24BB   	fcall	_mode_display
              120A  118A         
  2524                           	line	287
  2525                           	
  2526  0327                     l764:	
  2527  0327  0008               	return
  2528                           	opt stack 0
  2529                           GLOBAL	__end_of_deg_180
  2530  0328                     	__end_of_deg_180:
  2531 ;; =============== function _deg_180 ends ============
  2532                           
  2533                           	signat	_deg_180,88
  2534                           	global	_deg_90
  2535                           psect	text582,local,class=CODE,delta=2
  2536                           global __ptext582
  2537  0464                     __ptext582:
  2538                           
  2539 ;; *************** function _deg_90 *****************
  2540 ;; Defined at:
  2541 ;;		line 249 in file "C:\Users\Phang\Desktop\9.80\PR 19\PR19.c"
  2542 ;; Parameters:    Size  Location     Type
  2543 ;;		None
  2544 ;; Auto vars:     Size  Location     Type
  2545 ;;		None
  2546 ;; Return value:  Size  Location     Type
  2547 ;;		None               void
  2548 ;; Registers used:
  2549 ;;		wreg, fsr0l, fsr0h, status,2, status,0, pclath, cstack
  2550 ;; Tracked objects:
  2551 ;;		On entry : 0/0
  2552 ;;		On exit  : 0/0
  2553 ;;		Unchanged: 0/0
  2554 ;; Data sizes:     COMMON   BANK0   BANK1   BANK3   BANK2
  2555 ;;      Params:         0       0       0       0       0
  2556 ;;      Locals:         0       0       0       0       0
  2557 ;;      Temps:          1       0       0       0       0
  2558 ;;      Totals:         1       0       0       0       0
  2559 ;;Total ram usage:        1 bytes
  2560 ;; Hardware stack levels used:    1
  2561 ;; Hardware stack levels required when called:    4
  2562 ;; This function calls:
  2563 ;;		_lm_run
  2564 ;;		_rm_run
  2565 ;;		_bm_run
  2566 ;;		_mode_display
  2567 ;; This function is called by:
  2568 ;;		_alphamode
  2569 ;; This function uses a non-reentrant model
  2570 ;;
  2571                           psect	text582
  2572                           	file	"C:\Users\Phang\Desktop\9.80\PR 19\PR19.c"
  2573                           	line	249
  2574                           	global	__size_of_deg_90
  2575  0027                     	__size_of_deg_90	equ	__end_of_deg_90-_deg_90
  2576                           	
  2577  0464                     _deg_90:	
  2578                           	opt	stack 2
  2579                           ; Regs used in _deg_90: [wreg-fsr0h+status,2+status,0+pclath+cstack]
  2580                           	line	250
  2581                           	
  2582  0464                     l2641:	
  2583                           ;PR19.c: 250: CCPR1L=190;
  2584  0464  30BE               	movlw	(0BEh)
  2585  0465  1283               	bcf	status, 5	;RP0=0, select bank0
  2586  0466  1303               	bcf	status, 6	;RP1=0, select bank0
  2587  0467  0095               	movwf	(21)	;volatile
  2588                           	line	251
  2589                           ;PR19.c: 251: CCPR2L=190;
  2590  0468  30BE               	movlw	(0BEh)
  2591  0469  009B               	movwf	(27)	;volatile
  2592                           	line	252
  2593                           ;PR19.c: 252: CCPR3L=255;
  2594  046A  30FF               	movlw	(0FFh)
  2595  046B  1683               	bsf	status, 5	;RP0=1, select bank1
  2596  046C  1303               	bcf	status, 6	;RP1=0, select bank1
  2597  046D  0095               	movwf	(149)^080h	;volatile
  2598                           	line	253
  2599                           	
  2600  046E                     l2643:	
  2601                           ;PR19.c: 253: lm_run(1);
  2602  046E  3001               	movlw	(01h)
  2603  046F  120A  118A  2288   	fcall	_lm_run
              120A  118A         
  2604                           	line	254
  2605                           	
  2606  0474                     l2645:	
  2607                           ;PR19.c: 254: rm_run(1);
  2608  0474  3001               	movlw	(01h)
  2609  0475  120A  118A  229F   	fcall	_rm_run
              120A  118A         
  2610                           	line	255
  2611                           	
  2612  047A                     l2647:	
  2613                           ;PR19.c: 255: bm_run(0);
  2614  047A  3000               	movlw	(0)
  2615  047B  120A  118A  22B6   	fcall	_bm_run
              120A  118A         
  2616                           	line	256
  2617                           	
  2618  0480                     l2649:	
  2619                           ;PR19.c: 256: mode_display("90","Degree");
  2620  0480  3040               	movlw	((STR_10-__stringbase))&0ffh
  2621  0481  00FD               	movwf	(??_deg_90+0)+0
  2622  0482  087D               	movf	(??_deg_90+0)+0,w
  2623  0483  00FB               	movwf	(?_mode_display)
  2624  0484  3076               	movlw	((STR_9-__stringbase))&0ffh
  2625  0485  120A  118A  24BB   	fcall	_mode_display
              120A  118A         
  2626                           	line	257
  2627                           	
  2628  048A                     l755:	
  2629  048A  0008               	return
  2630                           	opt stack 0
  2631                           GLOBAL	__end_of_deg_90
  2632  048B                     	__end_of_deg_90:
  2633 ;; =============== function _deg_90 ends ============
  2634                           
  2635                           	signat	_deg_90,88
  2636                           	global	_deg_0
  2637                           psect	text583,local,class=CODE,delta=2
  2638                           global __ptext583
  2639  02EA                     __ptext583:
  2640                           
  2641 ;; *************** function _deg_0 *****************
  2642 ;; Defined at:
  2643 ;;		line 219 in file "C:\Users\Phang\Desktop\9.80\PR 19\PR19.c"
  2644 ;; Parameters:    Size  Location     Type
  2645 ;;		None
  2646 ;; Auto vars:     Size  Location     Type
  2647 ;;		None
  2648 ;; Return value:  Size  Location     Type
  2649 ;;		None               void
  2650 ;; Registers used:
  2651 ;;		wreg, fsr0l, fsr0h, status,2, status,0, pclath, cstack
  2652 ;; Tracked objects:
  2653 ;;		On entry : 0/0
  2654 ;;		On exit  : 0/0
  2655 ;;		Unchanged: 0/0
  2656 ;; Data sizes:     COMMON   BANK0   BANK1   BANK3   BANK2
  2657 ;;      Params:         0       0       0       0       0
  2658 ;;      Locals:         0       0       0       0       0
  2659 ;;      Temps:          1       0       0       0       0
  2660 ;;      Totals:         1       0       0       0       0
  2661 ;;Total ram usage:        1 bytes
  2662 ;; Hardware stack levels used:    1
  2663 ;; Hardware stack levels required when called:    4
  2664 ;; This function calls:
  2665 ;;		_lm_run
  2666 ;;		_rm_run
  2667 ;;		_mode_display
  2668 ;; This function is called by:
  2669 ;;		_alphamode
  2670 ;;		_betamode
  2671 ;; This function uses a non-reentrant model
  2672 ;;
  2673                           psect	text583
  2674                           	file	"C:\Users\Phang\Desktop\9.80\PR 19\PR19.c"
  2675                           	line	219
  2676                           	global	__size_of_deg_0
  2677  001F                     	__size_of_deg_0	equ	__end_of_deg_0-_deg_0
  2678                           	
  2679  02EA                     _deg_0:	
  2680                           	opt	stack 2
  2681                           ; Regs used in _deg_0: [wreg-fsr0h+status,2+status,0+pclath+cstack]
  2682                           	line	220
  2683                           	
  2684  02EA                     l2631:	
  2685                           ;PR19.c: 220: CCPR1L=CCPR2L=255;
  2686  02EA  30FF               	movlw	(0FFh)
  2687  02EB  1283               	bcf	status, 5	;RP0=0, select bank0
  2688  02EC  1303               	bcf	status, 6	;RP1=0, select bank0
  2689  02ED  009B               	movwf	(27)	;volatile
  2690  02EE  0095               	movwf	(21)	;volatile
  2691                           	line	221
  2692                           	
  2693  02EF                     l2633:	
  2694                           ;PR19.c: 221: CCPR3L=0;
  2695  02EF  1683               	bsf	status, 5	;RP0=1, select bank1
  2696  02F0  1303               	bcf	status, 6	;RP1=0, select bank1
  2697  02F1  0195               	clrf	(149)^080h	;volatile
  2698                           	line	222
  2699                           	
  2700  02F2                     l2635:	
  2701                           ;PR19.c: 222: lm_run(1);
  2702  02F2  3001               	movlw	(01h)
  2703  02F3  120A  118A  2288   	fcall	_lm_run
              120A  118A         
  2704                           	line	223
  2705                           	
  2706  02F8                     l2637:	
  2707                           ;PR19.c: 223: rm_run(0);
  2708  02F8  3000               	movlw	(0)
  2709  02F9  120A  118A  229F   	fcall	_rm_run
              120A  118A         
  2710                           	line	224
  2711                           	
  2712  02FE                     l2639:	
  2713                           ;PR19.c: 224: mode_display("0","Degree");
  2714  02FE  3040               	movlw	((STR_4-__stringbase))&0ffh
  2715  02FF  00FD               	movwf	(??_deg_0+0)+0
  2716  0300  087D               	movf	(??_deg_0+0)+0,w
  2717  0301  00FB               	movwf	(?_mode_display)
  2718  0302  3055               	movlw	((STR_3-__stringbase))&0ffh
  2719  0303  120A  118A  24BB   	fcall	_mode_display
              120A  118A         
  2720                           	line	225
  2721                           	
  2722  0308                     l746:	
  2723  0308  0008               	return
  2724                           	opt stack 0
  2725                           GLOBAL	__end_of_deg_0
  2726  0309                     	__end_of_deg_0:
  2727 ;; =============== function _deg_0 ends ============
  2728                           
  2729                           	signat	_deg_0,88
  2730                           	global	_deg_270
  2731                           psect	text584,local,class=CODE,delta=2
  2732                           global __ptext584
  2733  043D                     __ptext584:
  2734                           
  2735 ;; *************** function _deg_270 *****************
  2736 ;; Defined at:
  2737 ;;		line 311 in file "C:\Users\Phang\Desktop\9.80\PR 19\PR19.c"
  2738 ;; Parameters:    Size  Location     Type
  2739 ;;		None
  2740 ;; Auto vars:     Size  Location     Type
  2741 ;;		None
  2742 ;; Return value:  Size  Location     Type
  2743 ;;		None               void
  2744 ;; Registers used:
  2745 ;;		wreg, fsr0l, fsr0h, status,2, status,0, pclath, cstack
  2746 ;; Tracked objects:
  2747 ;;		On entry : 0/0
  2748 ;;		On exit  : 0/0
  2749 ;;		Unchanged: 0/0
  2750 ;; Data sizes:     COMMON   BANK0   BANK1   BANK3   BANK2
  2751 ;;      Params:         0       0       0       0       0
  2752 ;;      Locals:         0       0       0       0       0
  2753 ;;      Temps:          1       0       0       0       0
  2754 ;;      Totals:         1       0       0       0       0
  2755 ;;Total ram usage:        1 bytes
  2756 ;; Hardware stack levels used:    1
  2757 ;; Hardware stack levels required when called:    4
  2758 ;; This function calls:
  2759 ;;		_lm_run
  2760 ;;		_rm_run
  2761 ;;		_bm_run
  2762 ;;		_mode_display
  2763 ;; This function is called by:
  2764 ;;		_alphamode
  2765 ;; This function uses a non-reentrant model
  2766 ;;
  2767                           psect	text584
  2768                           	file	"C:\Users\Phang\Desktop\9.80\PR 19\PR19.c"
  2769                           	line	311
  2770                           	global	__size_of_deg_270
  2771  0027                     	__size_of_deg_270	equ	__end_of_deg_270-_deg_270
  2772                           	
  2773  043D                     _deg_270:	
  2774                           	opt	stack 2
  2775                           ; Regs used in _deg_270: [wreg-fsr0h+status,2+status,0+pclath+cstack]
  2776                           	line	312
  2777                           	
  2778  043D                     l2621:	
  2779                           ;PR19.c: 312: CCPR1L=190;
  2780  043D  30BE               	movlw	(0BEh)
  2781  043E  1283               	bcf	status, 5	;RP0=0, select bank0
  2782  043F  1303               	bcf	status, 6	;RP1=0, select bank0
  2783  0440  0095               	movwf	(21)	;volatile
  2784                           	line	313
  2785                           ;PR19.c: 313: CCPR2L=190;
  2786  0441  30BE               	movlw	(0BEh)
  2787  0442  009B               	movwf	(27)	;volatile
  2788                           	line	314
  2789                           ;PR19.c: 314: CCPR3L=255;
  2790  0443  30FF               	movlw	(0FFh)
  2791  0444  1683               	bsf	status, 5	;RP0=1, select bank1
  2792  0445  1303               	bcf	status, 6	;RP1=0, select bank1
  2793  0446  0095               	movwf	(149)^080h	;volatile
  2794                           	line	315
  2795                           	
  2796  0447                     l2623:	
  2797                           ;PR19.c: 315: lm_run(0);
  2798  0447  3000               	movlw	(0)
  2799  0448  120A  118A  2288   	fcall	_lm_run
              120A  118A         
  2800                           	line	316
  2801                           	
  2802  044D                     l2625:	
  2803                           ;PR19.c: 316: rm_run(0);
  2804  044D  3000               	movlw	(0)
  2805  044E  120A  118A  229F   	fcall	_rm_run
              120A  118A         
  2806                           	line	317
  2807                           	
  2808  0453                     l2627:	
  2809                           ;PR19.c: 317: bm_run(1);
  2810  0453  3001               	movlw	(01h)
  2811  0454  120A  118A  22B6   	fcall	_bm_run
              120A  118A         
  2812                           	line	318
  2813                           	
  2814  0459                     l2629:	
  2815                           ;PR19.c: 318: mode_display("270","Degree");
  2816  0459  3040               	movlw	((STR_22-__stringbase))&0ffh
  2817  045A  00FD               	movwf	(??_deg_270+0)+0
  2818  045B  087D               	movf	(??_deg_270+0)+0,w
  2819  045C  00FB               	movwf	(?_mode_display)
  2820  045D  306B               	movlw	((STR_21-__stringbase))&0ffh
  2821  045E  120A  118A  24BB   	fcall	_mode_display
              120A  118A         
  2822                           	line	319
  2823                           	
  2824  0463                     l773:	
  2825  0463  0008               	return
  2826                           	opt stack 0
  2827                           GLOBAL	__end_of_deg_270
  2828  0464                     	__end_of_deg_270:
  2829 ;; =============== function _deg_270 ends ============
  2830                           
  2831                           	signat	_deg_270,88
  2832                           	global	_mode_display
  2833                           psect	text585,local,class=CODE,delta=2
  2834                           global __ptext585
  2835  04BB                     __ptext585:
  2836                           
  2837 ;; *************** function _mode_display *****************
  2838 ;; Defined at:
  2839 ;;		line 474 in file "C:\Users\Phang\Desktop\9.80\PR 19\PR19.c"
  2840 ;; Parameters:    Size  Location     Type
  2841 ;;  x               1    wreg     PTR const unsigned char 
  2842 ;;		 -> STR_29(14), STR_27(10), STR_25(4), STR_23(4), 
  2843 ;;		 -> STR_21(4), STR_19(4), STR_17(4), STR_15(4), 
  2844 ;;		 -> STR_13(4), STR_11(4), STR_9(3), STR_7(3), 
  2845 ;;		 -> STR_5(3), STR_3(2), STR_1(9), 
  2846 ;;  y               1   11[COMMON] PTR const unsigned char 
  2847 ;;		 -> STR_30(1), STR_28(1), STR_26(7), STR_24(7), 
  2848 ;;		 -> STR_22(7), STR_20(7), STR_18(7), STR_16(7), 
  2849 ;;		 -> STR_14(7), STR_12(7), STR_10(7), STR_8(7), 
  2850 ;;		 -> STR_6(7), STR_4(7), STR_2(5), 
  2851 ;; Auto vars:     Size  Location     Type
  2852 ;;  x               1   12[COMMON] PTR const unsigned char 
  2853 ;;		 -> STR_29(14), STR_27(10), STR_25(4), STR_23(4), 
  2854 ;;		 -> STR_21(4), STR_19(4), STR_17(4), STR_15(4), 
  2855 ;;		 -> STR_13(4), STR_11(4), STR_9(3), STR_7(3), 
  2856 ;;		 -> STR_5(3), STR_3(2), STR_1(9), 
  2857 ;; Return value:  Size  Location     Type
  2858 ;;		None               void
  2859 ;; Registers used:
  2860 ;;		wreg, fsr0l, fsr0h, status,2, status,0, pclath, cstack
  2861 ;; Tracked objects:
  2862 ;;		On entry : 0/0
  2863 ;;		On exit  : 0/0
  2864 ;;		Unchanged: 0/0
  2865 ;; Data sizes:     COMMON   BANK0   BANK1   BANK3   BANK2
  2866 ;;      Params:         1       0       0       0       0
  2867 ;;      Locals:         1       0       0       0       0
  2868 ;;      Temps:          0       0       0       0       0
  2869 ;;      Totals:         2       0       0       0       0
  2870 ;;Total ram usage:        2 bytes
  2871 ;; Hardware stack levels used:    1
  2872 ;; Hardware stack levels required when called:    3
  2873 ;; This function calls:
  2874 ;;		_lcd_clr
  2875 ;;		_lcd_goto
  2876 ;;		_send_string
  2877 ;;		_delay
  2878 ;; This function is called by:
  2879 ;;		_m_stop
  2880 ;;		_deg_0
  2881 ;;		_deg_30
  2882 ;;		_deg_90
  2883 ;;		_deg_150
  2884 ;;		_deg_180
  2885 ;;		_deg_210
  2886 ;;		_deg_270
  2887 ;;		_deg_330
  2888 ;;		_clockwise
  2889 ;;		_deg_60
  2890 ;;		_deg_120
  2891 ;;		_deg_240
  2892 ;;		_deg_300
  2893 ;;		_anticlockwise
  2894 ;; This function uses a non-reentrant model
  2895 ;;
  2896                           psect	text585
  2897                           	file	"C:\Users\Phang\Desktop\9.80\PR 19\PR19.c"
  2898                           	line	474
  2899                           	global	__size_of_mode_display
  2900  0035                     	__size_of_mode_display	equ	__end_of_mode_display-_mode_display
  2901                           	
  2902  04BB                     _mode_display:	
  2903                           	opt	stack 2
  2904                           ; Regs used in _mode_display: [wreg-fsr0h+status,2+status,0+pclath+cstack]
  2905                           ;mode_display@x stored from wreg
  2906  04BB  00FC               	movwf	(mode_display@x)
  2907                           	line	475
  2908                           	
  2909  04BC                     l2609:	
  2910                           ;PR19.c: 475: RA3=0;
  2911  04BC  1283               	bcf	status, 5	;RP0=0, select bank0
  2912  04BD  1303               	bcf	status, 6	;RP1=0, select bank0
  2913  04BE  1185               	bcf	(43/8),(43)&7
  2914                           	line	476
  2915                           ;PR19.c: 476: if(RA0 == 0)return;
  2916  04BF  1805               	btfsc	(40/8),(40)&7
  2917  04C0  2CC2               	goto	u2821
  2918  04C1  2CC3               	goto	u2820
  2919  04C2                     u2821:
  2920  04C2  2CC5               	goto	l2613
  2921  04C3                     u2820:
  2922  04C3  2CEF               	goto	l844
  2923                           	
  2924  04C4                     l2611:	
  2925  04C4  2CEF               	goto	l844
  2926                           	
  2927  04C5                     l843:	
  2928                           	line	477
  2929                           	
  2930  04C5                     l2613:	
  2931                           ;PR19.c: 477: lcd_clr();
  2932  04C5  120A  118A  2274   	fcall	_lcd_clr
              120A  118A         
  2933                           	line	478
  2934                           ;PR19.c: 478: lcd_goto(0);
  2935  04CA  3000               	movlw	(0)
  2936  04CB  120A  118A  22CD   	fcall	_lcd_goto
              120A  118A         
  2937                           	line	479
  2938                           	
  2939  04D0                     l2615:	
  2940                           ;PR19.c: 479: send_string(x);
  2941  04D0  087C               	movf	(mode_display@x),w
  2942  04D1  120A  118A  2417   	fcall	_send_string
              120A  118A         
  2943                           	line	480
  2944                           	
  2945  04D6                     l2617:	
  2946                           ;PR19.c: 480: lcd_goto(20);
  2947  04D6  3014               	movlw	(014h)
  2948  04D7  120A  118A  22CD   	fcall	_lcd_goto
              120A  118A         
  2949                           	line	481
  2950                           ;PR19.c: 481: send_string(y);
  2951  04DC  087B               	movf	(mode_display@y),w
  2952  04DD  120A  118A  2417   	fcall	_send_string
              120A  118A         
  2953                           	line	482
  2954                           	
  2955  04E2                     l2619:	
  2956                           ;PR19.c: 482: delay(10000);
  2957  04E2  3000               	movlw	0
  2958  04E3  00F3               	movwf	(?_delay+3)
  2959  04E4  3000               	movlw	0
  2960  04E5  00F2               	movwf	(?_delay+2)
  2961  04E6  3027               	movlw	027h
  2962  04E7  00F1               	movwf	(?_delay+1)
  2963  04E8  3010               	movlw	010h
  2964  04E9  00F0               	movwf	(?_delay)
  2965                           
  2966  04EA  120A  118A  248B   	fcall	_delay
              120A  118A         
  2967                           	line	483
  2968                           	
  2969  04EF                     l844:	
  2970  04EF  0008               	return
  2971                           	opt stack 0
  2972                           GLOBAL	__end_of_mode_display
  2973  04F0                     	__end_of_mode_display:
  2974 ;; =============== function _mode_display ends ============
  2975                           
  2976                           	signat	_mode_display,8312
  2977                           	global	_shift_display
  2978                           psect	text586,local,class=CODE,delta=2
  2979                           global __ptext586
  2980  06B8                     __ptext586:
  2981                           
  2982 ;; *************** function _shift_display *****************
  2983 ;; Defined at:
  2984 ;;		line 417 in file "C:\Users\Phang\Desktop\9.80\PR 19\PR19.c"
  2985 ;; Parameters:    Size  Location     Type
  2986 ;;		None
  2987 ;; Auto vars:     Size  Location     Type
  2988 ;;		None
  2989 ;; Return value:  Size  Location     Type
  2990 ;;		None               void
  2991 ;; Registers used:
  2992 ;;		wreg, fsr0l, fsr0h, status,2, status,0, pclath, cstack
  2993 ;; Tracked objects:
  2994 ;;		On entry : 0/0
  2995 ;;		On exit  : 0/0
  2996 ;;		Unchanged: 0/0
  2997 ;; Data sizes:     COMMON   BANK0   BANK1   BANK3   BANK2
  2998 ;;      Params:         0       0       0       0       0
  2999 ;;      Locals:         0       0       0       0       0
  3000 ;;      Temps:          1       0       0       0       0
  3001 ;;      Totals:         1       0       0       0       0
  3002 ;;Total ram usage:        1 bytes
  3003 ;; Hardware stack levels used:    1
  3004 ;; Hardware stack levels required when called:    3
  3005 ;; This function calls:
  3006 ;;		_lcd_clr
  3007 ;;		_lcd_goto
  3008 ;;		_send_string
  3009 ;;		_send_config
  3010 ;;		_delay
  3011 ;; This function is called by:
  3012 ;;		_main
  3013 ;; This function uses a non-reentrant model
  3014 ;;
  3015                           psect	text586
  3016                           	file	"C:\Users\Phang\Desktop\9.80\PR 19\PR19.c"
  3017                           	line	417
  3018                           	global	__size_of_shift_display
  3019  0148                     	__size_of_shift_display	equ	__end_of_shift_display-_shift_display
  3020                           	
  3021  06B8                     _shift_display:	
  3022                           	opt	stack 4
  3023                           ; Regs used in _shift_display: [wreg-fsr0h+status,2+status,0+pclath+cstack]
  3024                           	line	418
  3025                           	
  3026  06B8                     l2527:	
  3027                           ;PR19.c: 418: switch(i)
  3028  06B8  2FF2               	goto	l2607
  3029                           	line	420
  3030                           ;PR19.c: 419: {
  3031                           ;PR19.c: 420: case 0:
  3032                           	
  3033  06B9                     l816:	
  3034                           	line	421
  3035                           	
  3036  06B9                     l2529:	
  3037                           ;PR19.c: 421: shift=0;
  3038  06B9  1003               	clrc
  3039  06BA  3000               	movlw	0
  3040  06BB  1803               	btfsc	status,0
  3041  06BC  3001               	movlw	1
  3042  06BD  1283               	bcf	status, 5	;RP0=0, select bank0
  3043  06BE  1303               	bcf	status, 6	;RP1=0, select bank0
  3044  06BF  00A1               	movwf	(_shift)
  3045                           	line	422
  3046                           	
  3047  06C0                     l2531:	
  3048                           ;PR19.c: 422: lcd_clr();
  3049  06C0  120A  118A  2274   	fcall	_lcd_clr
              120A  118A         
  3050                           	line	423
  3051                           	
  3052  06C5                     l2533:	
  3053                           ;PR19.c: 423: lcd_goto(1);
  3054  06C5  3001               	movlw	(01h)
  3055  06C6  120A  118A  22CD   	fcall	_lcd_goto
              120A  118A         
  3056                           	line	424
  3057                           	
  3058  06CB                     l2535:	
  3059                           ;PR19.c: 424: send_string("Cytron");
  3060  06CB  3047               	movlw	((STR_31-__stringbase))&0ffh
  3061  06CC  120A  118A  2417   	fcall	_send_string
              120A  118A         
  3062                           	line	425
  3063                           	
  3064  06D1                     l2537:	
  3065                           ;PR19.c: 425: lcd_goto(20);
  3066  06D1  3014               	movlw	(014h)
  3067  06D2  120A  118A  22CD   	fcall	_lcd_goto
              120A  118A         
  3068                           	line	426
  3069                           	
  3070  06D7                     l2539:	
  3071                           ;PR19.c: 426: send_string("Flexibot");
  3072  06D7  3008               	movlw	((STR_32-__stringbase))&0ffh
  3073  06D8  120A  118A  2417   	fcall	_send_string
              120A  118A         
  3074                           	line	427
  3075                           ;PR19.c: 427: for( ;shift<8;shift+=1)
  3076  06DD  2EFE               	goto	l2547
  3077                           	line	428
  3078                           	
  3079  06DE                     l818:	
  3080                           	line	429
  3081                           ;PR19.c: 428: {
  3082                           ;PR19.c: 429: if(RA0 == 0)return;
  3083  06DE  1805               	btfsc	(40/8),(40)&7
  3084  06DF  2EE1               	goto	u2701
  3085  06E0  2EE2               	goto	u2700
  3086  06E1                     u2701:
  3087  06E1  2EE4               	goto	l2543
  3088  06E2                     u2700:
  3089  06E2  2FFF               	goto	l820
  3090                           	
  3091  06E3                     l2541:	
  3092  06E3  2FFF               	goto	l820
  3093                           	
  3094  06E4                     l819:	
  3095                           	line	430
  3096                           	
  3097  06E4                     l2543:	
  3098                           ;PR19.c: 430: send_config(0b00011100);
  3099  06E4  301C               	movlw	(01Ch)
  3100  06E5  120A  118A  23A8   	fcall	_send_config
              120A  118A         
  3101                           	line	431
  3102                           ;PR19.c: 431: delay(50000);
  3103  06EA  3000               	movlw	0
  3104  06EB  00F3               	movwf	(?_delay+3)
  3105  06EC  3000               	movlw	0
  3106  06ED  00F2               	movwf	(?_delay+2)
  3107  06EE  30C3               	movlw	0C3h
  3108  06EF  00F1               	movwf	(?_delay+1)
  3109  06F0  3050               	movlw	050h
  3110  06F1  00F0               	movwf	(?_delay)
  3111                           
  3112  06F2  120A  118A  248B   	fcall	_delay
              120A  118A         
  3113                           	line	427
  3114                           	
  3115  06F7                     l2545:	
  3116  06F7  3001               	movlw	(01h)
  3117  06F8  00FB               	movwf	(??_shift_display+0)+0
  3118  06F9  087B               	movf	(??_shift_display+0)+0,w
  3119  06FA  1283               	bcf	status, 5	;RP0=0, select bank0
  3120  06FB  1303               	bcf	status, 6	;RP1=0, select bank0
  3121  06FC  07A1               	addwf	(_shift),f
  3122  06FD  2EFE               	goto	l2547
  3123                           	
  3124  06FE                     l817:	
  3125                           	
  3126  06FE                     l2547:	
  3127  06FE  3008               	movlw	(08h)
  3128  06FF  1283               	bcf	status, 5	;RP0=0, select bank0
  3129  0700  1303               	bcf	status, 6	;RP1=0, select bank0
  3130  0701  0221               	subwf	(_shift),w
  3131  0702  1C03               	skipc
  3132  0703  2F05               	goto	u2711
  3133  0704  2F06               	goto	u2710
  3134  0705                     u2711:
  3135  0705  2EDE               	goto	l818
  3136  0706                     u2710:
  3137  0706  2F26               	goto	l2555
  3138                           	
  3139  0707                     l821:	
  3140                           	line	433
  3141                           ;PR19.c: 432: }
  3142                           ;PR19.c: 433: for( ;shift>0;shift-=1)
  3143  0707  2F26               	goto	l2555
  3144                           	line	434
  3145                           	
  3146  0708                     l823:	
  3147                           	line	435
  3148                           ;PR19.c: 434: {
  3149                           ;PR19.c: 435: if(RA0 == 0)return;
  3150  0708  1805               	btfsc	(40/8),(40)&7
  3151  0709  2F0B               	goto	u2721
  3152  070A  2F0C               	goto	u2720
  3153  070B                     u2721:
  3154  070B  2F0E               	goto	l2551
  3155  070C                     u2720:
  3156  070C  2FFF               	goto	l820
  3157                           	
  3158  070D                     l2549:	
  3159  070D  2FFF               	goto	l820
  3160                           	
  3161  070E                     l824:	
  3162                           	line	436
  3163                           	
  3164  070E                     l2551:	
  3165                           ;PR19.c: 436: send_config(0b00011000);
  3166  070E  3018               	movlw	(018h)
  3167  070F  120A  118A  23A8   	fcall	_send_config
              120A  118A         
  3168                           	line	437
  3169                           ;PR19.c: 437: delay(50000);
  3170  0714  3000               	movlw	0
  3171  0715  00F3               	movwf	(?_delay+3)
  3172  0716  3000               	movlw	0
  3173  0717  00F2               	movwf	(?_delay+2)
  3174  0718  30C3               	movlw	0C3h
  3175  0719  00F1               	movwf	(?_delay+1)
  3176  071A  3050               	movlw	050h
  3177  071B  00F0               	movwf	(?_delay)
  3178                           
  3179  071C  120A  118A  248B   	fcall	_delay
              120A  118A         
  3180                           	line	433
  3181                           	
  3182  0721                     l2553:	
  3183  0721  3001               	movlw	low(01h)
  3184  0722  1283               	bcf	status, 5	;RP0=0, select bank0
  3185  0723  1303               	bcf	status, 6	;RP1=0, select bank0
  3186  0724  02A1               	subwf	(_shift),f
  3187  0725  2F26               	goto	l2555
  3188                           	
  3189  0726                     l822:	
  3190                           	
  3191  0726                     l2555:	
  3192  0726  08A1               	movf	(_shift),f
  3193  0727  1D03               	skipz
  3194  0728  2F2A               	goto	u2731
  3195  0729  2F2B               	goto	u2730
  3196  072A                     u2731:
  3197  072A  2F08               	goto	l823
  3198  072B                     u2730:
  3199  072B  2FFF               	goto	l820
  3200                           	
  3201  072C                     l825:	
  3202                           	line	439
  3203                           ;PR19.c: 438: }
  3204                           ;PR19.c: 439: break;
  3205  072C  2FFF               	goto	l820
  3206                           	line	440
  3207                           ;PR19.c: 440: case 1:
  3208                           	
  3209  072D                     l827:	
  3210                           	line	441
  3211                           	
  3212  072D                     l2557:	
  3213                           ;PR19.c: 441: shift=0;
  3214  072D  1003               	clrc
  3215  072E  3000               	movlw	0
  3216  072F  1803               	btfsc	status,0
  3217  0730  3001               	movlw	1
  3218  0731  00A1               	movwf	(_shift)
  3219                           	line	442
  3220                           	
  3221  0732                     l2559:	
  3222                           ;PR19.c: 442: lcd_clr();
  3223  0732  120A  118A  2274   	fcall	_lcd_clr
              120A  118A         
  3224                           	line	443
  3225                           	
  3226  0737                     l2561:	
  3227                           ;PR19.c: 443: lcd_goto(0);
  3228  0737  3000               	movlw	(0)
  3229  0738  120A  118A  22CD   	fcall	_lcd_goto
              120A  118A         
  3230                           	line	444
  3231                           	
  3232  073D                     l2563:	
  3233                           ;PR19.c: 444: send_string("Cytron Flexibot");
  3234  073D  3001               	movlw	((STR_33-__stringbase))&0ffh
  3235  073E  120A  118A  2417   	fcall	_send_string
              120A  118A         
  3236                           	line	445
  3237                           	
  3238  0743                     l2565:	
  3239                           ;PR19.c: 445: lcd_goto(22);
  3240  0743  3016               	movlw	(016h)
  3241  0744  120A  118A  22CD   	fcall	_lcd_goto
              120A  118A         
  3242                           	line	446
  3243                           	
  3244  0749                     l2567:	
  3245                           ;PR19.c: 446: send_string("Alpha Mode?");
  3246  0749  301F               	movlw	((STR_34-__stringbase))&0ffh
  3247  074A  120A  118A  2417   	fcall	_send_string
              120A  118A         
  3248                           	line	447
  3249                           	
  3250  074F                     l2569:	
  3251                           ;PR19.c: 447: if(RA0 == 0 || RA1 ==0)return;
  3252  074F  1283               	bcf	status, 5	;RP0=0, select bank0
  3253  0750  1303               	bcf	status, 6	;RP1=0, select bank0
  3254  0751  1C05               	btfss	(40/8),(40)&7
  3255  0752  2F54               	goto	u2741
  3256  0753  2F55               	goto	u2740
  3257  0754                     u2741:
  3258  0754  2FFF               	goto	l820
  3259  0755                     u2740:
  3260                           	
  3261  0755                     l2571:	
  3262  0755  1885               	btfsc	(41/8),(41)&7
  3263  0756  2F58               	goto	u2751
  3264  0757  2F59               	goto	u2750
  3265  0758                     u2751:
  3266  0758  2F5B               	goto	l2573
  3267  0759                     u2750:
  3268  0759  2FFF               	goto	l820
  3269                           	
  3270  075A                     l830:	
  3271  075A  2FFF               	goto	l820
  3272                           	
  3273  075B                     l828:	
  3274                           	line	448
  3275                           	
  3276  075B                     l2573:	
  3277                           ;PR19.c: 448: send_config(0b00011100);
  3278  075B  301C               	movlw	(01Ch)
  3279  075C  120A  118A  23A8   	fcall	_send_config
              120A  118A         
  3280                           	line	449
  3281                           ;PR19.c: 449: delay(80000);
  3282  0761  3000               	movlw	0
  3283  0762  00F3               	movwf	(?_delay+3)
  3284  0763  3001               	movlw	01h
  3285  0764  00F2               	movwf	(?_delay+2)
  3286  0765  3038               	movlw	038h
  3287  0766  00F1               	movwf	(?_delay+1)
  3288  0767  3080               	movlw	080h
  3289  0768  00F0               	movwf	(?_delay)
  3290                           
  3291  0769  120A  118A  248B   	fcall	_delay
              120A  118A         
  3292                           	line	450
  3293                           	
  3294  076E                     l2575:	
  3295                           ;PR19.c: 450: if(RA0 == 0 || RA1 ==0)return;
  3296  076E  1283               	bcf	status, 5	;RP0=0, select bank0
  3297  076F  1303               	bcf	status, 6	;RP1=0, select bank0
  3298  0770  1C05               	btfss	(40/8),(40)&7
  3299  0771  2F73               	goto	u2761
  3300  0772  2F74               	goto	u2760
  3301  0773                     u2761:
  3302  0773  2FFF               	goto	l820
  3303  0774                     u2760:
  3304                           	
  3305  0774                     l2577:	
  3306  0774  1885               	btfsc	(41/8),(41)&7
  3307  0775  2F77               	goto	u2771
  3308  0776  2F78               	goto	u2770
  3309  0777                     u2771:
  3310  0777  2F7A               	goto	l2579
  3311  0778                     u2770:
  3312  0778  2FFF               	goto	l820
  3313                           	
  3314  0779                     l833:	
  3315  0779  2FFF               	goto	l820
  3316                           	
  3317  077A                     l831:	
  3318                           	line	451
  3319                           	
  3320  077A                     l2579:	
  3321                           ;PR19.c: 451: send_config(0b00011000);
  3322  077A  3018               	movlw	(018h)
  3323  077B  120A  118A  23A8   	fcall	_send_config
              120A  118A         
  3324                           	line	452
  3325                           ;PR19.c: 452: delay(80000);
  3326  0780  3000               	movlw	0
  3327  0781  00F3               	movwf	(?_delay+3)
  3328  0782  3001               	movlw	01h
  3329  0783  00F2               	movwf	(?_delay+2)
  3330  0784  3038               	movlw	038h
  3331  0785  00F1               	movwf	(?_delay+1)
  3332  0786  3080               	movlw	080h
  3333  0787  00F0               	movwf	(?_delay)
  3334                           
  3335  0788  120A  118A  248B   	fcall	_delay
              120A  118A         
  3336                           	line	453
  3337                           ;PR19.c: 453: break;
  3338  078D  2FFF               	goto	l820
  3339                           	line	454
  3340                           ;PR19.c: 454: case 2:
  3341                           	
  3342  078E                     l834:	
  3343                           	line	455
  3344                           	
  3345  078E                     l2581:	
  3346                           ;PR19.c: 455: shift=0;
  3347  078E  1003               	clrc
  3348  078F  3000               	movlw	0
  3349  0790  1803               	btfsc	status,0
  3350  0791  3001               	movlw	1
  3351  0792  1283               	bcf	status, 5	;RP0=0, select bank0
  3352  0793  1303               	bcf	status, 6	;RP1=0, select bank0
  3353  0794  00A1               	movwf	(_shift)
  3354                           	line	456
  3355                           	
  3356  0795                     l2583:	
  3357                           ;PR19.c: 456: lcd_clr();
  3358  0795  120A  118A  2274   	fcall	_lcd_clr
              120A  118A         
  3359                           	line	457
  3360                           	
  3361  079A                     l2585:	
  3362                           ;PR19.c: 457: lcd_goto(0);
  3363  079A  3000               	movlw	(0)
  3364  079B  120A  118A  22CD   	fcall	_lcd_goto
              120A  118A         
  3365                           	line	458
  3366                           	
  3367  07A0                     l2587:	
  3368                           ;PR19.c: 458: send_string("Cytron Flexibot");
  3369  07A0  3001               	movlw	((STR_35-__stringbase))&0ffh
  3370  07A1  120A  118A  2417   	fcall	_send_string
              120A  118A         
  3371                           	line	459
  3372                           	
  3373  07A6                     l2589:	
  3374                           ;PR19.c: 459: lcd_goto(22);
  3375  07A6  3016               	movlw	(016h)
  3376  07A7  120A  118A  22CD   	fcall	_lcd_goto
              120A  118A         
  3377                           	line	460
  3378                           	
  3379  07AC                     l2591:	
  3380                           ;PR19.c: 460: send_string("Beta Mode?");
  3381  07AC  302B               	movlw	((STR_36-__stringbase))&0ffh
  3382  07AD  120A  118A  2417   	fcall	_send_string
              120A  118A         
  3383                           	line	461
  3384                           	
  3385  07B2                     l2593:	
  3386                           ;PR19.c: 461: if(RA0 == 0 || RA1 ==0)return;
  3387  07B2  1283               	bcf	status, 5	;RP0=0, select bank0
  3388  07B3  1303               	bcf	status, 6	;RP1=0, select bank0
  3389  07B4  1C05               	btfss	(40/8),(40)&7
  3390  07B5  2FB7               	goto	u2781
  3391  07B6  2FB8               	goto	u2780
  3392  07B7                     u2781:
  3393  07B7  2FFF               	goto	l820
  3394  07B8                     u2780:
  3395                           	
  3396  07B8                     l2595:	
  3397  07B8  1885               	btfsc	(41/8),(41)&7
  3398  07B9  2FBB               	goto	u2791
  3399  07BA  2FBC               	goto	u2790
  3400  07BB                     u2791:
  3401  07BB  2FBE               	goto	l2597
  3402  07BC                     u2790:
  3403  07BC  2FFF               	goto	l820
  3404                           	
  3405  07BD                     l837:	
  3406  07BD  2FFF               	goto	l820
  3407                           	
  3408  07BE                     l835:	
  3409                           	line	462
  3410                           	
  3411  07BE                     l2597:	
  3412                           ;PR19.c: 462: send_config(0b00011100);
  3413  07BE  301C               	movlw	(01Ch)
  3414  07BF  120A  118A  23A8   	fcall	_send_config
              120A  118A         
  3415                           	line	463
  3416                           ;PR19.c: 463: delay(80000);
  3417  07C4  3000               	movlw	0
  3418  07C5  00F3               	movwf	(?_delay+3)
  3419  07C6  3001               	movlw	01h
  3420  07C7  00F2               	movwf	(?_delay+2)
  3421  07C8  3038               	movlw	038h
  3422  07C9  00F1               	movwf	(?_delay+1)
  3423  07CA  3080               	movlw	080h
  3424  07CB  00F0               	movwf	(?_delay)
  3425                           
  3426  07CC  120A  118A  248B   	fcall	_delay
              120A  118A         
  3427                           	line	464
  3428                           	
  3429  07D1                     l2599:	
  3430                           ;PR19.c: 464: if(RA0 == 0 || RA1 ==0)return;
  3431  07D1  1283               	bcf	status, 5	;RP0=0, select bank0
  3432  07D2  1303               	bcf	status, 6	;RP1=0, select bank0
  3433  07D3  1C05               	btfss	(40/8),(40)&7
  3434  07D4  2FD6               	goto	u2801
  3435  07D5  2FD7               	goto	u2800
  3436  07D6                     u2801:
  3437  07D6  2FFF               	goto	l820
  3438  07D7                     u2800:
  3439                           	
  3440  07D7                     l2601:	
  3441  07D7  1885               	btfsc	(41/8),(41)&7
  3442  07D8  2FDA               	goto	u2811
  3443  07D9  2FDB               	goto	u2810
  3444  07DA                     u2811:
  3445  07DA  2FDD               	goto	l2603
  3446  07DB                     u2810:
  3447  07DB  2FFF               	goto	l820
  3448                           	
  3449  07DC                     l840:	
  3450  07DC  2FFF               	goto	l820
  3451                           	
  3452  07DD                     l838:	
  3453                           	line	465
  3454                           	
  3455  07DD                     l2603:	
  3456                           ;PR19.c: 465: send_config(0b00011000);
  3457  07DD  3018               	movlw	(018h)
  3458  07DE  120A  118A  23A8   	fcall	_send_config
              120A  118A         
  3459                           	line	466
  3460                           ;PR19.c: 466: delay(80000);
  3461  07E3  3000               	movlw	0
  3462  07E4  00F3               	movwf	(?_delay+3)
  3463  07E5  3001               	movlw	01h
  3464  07E6  00F2               	movwf	(?_delay+2)
  3465  07E7  3038               	movlw	038h
  3466  07E8  00F1               	movwf	(?_delay+1)
  3467  07E9  3080               	movlw	080h
  3468  07EA  00F0               	movwf	(?_delay)
  3469                           
  3470  07EB  120A  118A  248B   	fcall	_delay
              120A  118A         
  3471                           	line	467
  3472                           ;PR19.c: 467: break;
  3473  07F0  2FFF               	goto	l820
  3474                           	line	468
  3475                           	
  3476  07F1                     l2605:	
  3477                           ;PR19.c: 468: }
  3478  07F1  2FFF               	goto	l820
  3479                           	line	418
  3480                           	
  3481  07F2                     l815:	
  3482                           	
  3483  07F2                     l2607:	
  3484  07F2  1283               	bcf	status, 5	;RP0=0, select bank0
  3485  07F3  1303               	bcf	status, 6	;RP1=0, select bank0
  3486  07F4  0820               	movf	(_i),w
  3487                           	; Switch size 1, requested type "space"
  3488                           ; Number of cases is 3, Range of values is 0 to 2
  3489                           ; switch strategies available:
  3490                           ; Name         Bytes Cycles
  3491                           ; simple_byte    10     6 (average)
  3492                           ; direct_byte    28    19 (fixed)
  3493                           ;	Chosen strategy is simple_byte
  3494                           
  3495  07F5  3A00               	xorlw	0^0	; case 0
  3496  07F6  1903               	skipnz
  3497  07F7  2EB9               	goto	l2529
  3498  07F8  3A01               	xorlw	1^0	; case 1
  3499  07F9  1903               	skipnz
  3500  07FA  2F2D               	goto	l2557
  3501  07FB  3A03               	xorlw	2^1	; case 2
  3502  07FC  1903               	skipnz
  3503  07FD  2F8E               	goto	l2581
  3504  07FE  2FFF               	goto	l820
  3505                           
  3506                           	line	468
  3507                           	
  3508  07FF                     l826:	
  3509                           	line	469
  3510                           	
  3511  07FF                     l820:	
  3512  07FF  0008               	return
  3513                           	opt stack 0
  3514                           GLOBAL	__end_of_shift_display
  3515  0800                     	__end_of_shift_display:
  3516 ;; =============== function _shift_display ends ============
  3517                           
  3518                           	signat	_shift_display,88
  3519                           	global	_send_string
  3520                           psect	text587,local,class=CODE,delta=2
  3521                           global __ptext587
  3522  0417                     __ptext587:
  3523                           
  3524 ;; *************** function _send_string *****************
  3525 ;; Defined at:
  3526 ;;		line 410 in file "C:\Users\Phang\Desktop\9.80\PR 19\PR19.c"
  3527 ;; Parameters:    Size  Location     Type
  3528 ;;  s               1    wreg     PTR const unsigned char 
  3529 ;;		 -> STR_36(11), STR_35(16), STR_34(12), STR_33(16), 
  3530 ;;		 -> STR_32(9), STR_31(7), STR_30(1), STR_29(14), 
  3531 ;;		 -> STR_28(1), STR_27(10), STR_26(7), STR_25(4), 
  3532 ;;		 -> STR_24(7), STR_23(4), STR_22(7), STR_21(4), 
  3533 ;;		 -> STR_20(7), STR_19(4), STR_18(7), STR_17(4), 
  3534 ;;		 -> STR_16(7), STR_15(4), STR_14(7), STR_13(4), 
  3535 ;;		 -> STR_12(7), STR_11(4), STR_10(7), STR_9(3), 
  3536 ;;		 -> STR_8(7), STR_7(3), STR_6(7), STR_5(3), 
  3537 ;;		 -> STR_4(7), STR_3(2), STR_2(5), STR_1(9), 
  3538 ;; Auto vars:     Size  Location     Type
  3539 ;;  s               1   10[COMMON] PTR const unsigned char 
  3540 ;;		 -> STR_36(11), STR_35(16), STR_34(12), STR_33(16), 
  3541 ;;		 -> STR_32(9), STR_31(7), STR_30(1), STR_29(14), 
  3542 ;;		 -> STR_28(1), STR_27(10), STR_26(7), STR_25(4), 
  3543 ;;		 -> STR_24(7), STR_23(4), STR_22(7), STR_21(4), 
  3544 ;;		 -> STR_20(7), STR_19(4), STR_18(7), STR_17(4), 
  3545 ;;		 -> STR_16(7), STR_15(4), STR_14(7), STR_13(4), 
  3546 ;;		 -> STR_12(7), STR_11(4), STR_10(7), STR_9(3), 
  3547 ;;		 -> STR_8(7), STR_7(3), STR_6(7), STR_5(3), 
  3548 ;;		 -> STR_4(7), STR_3(2), STR_2(5), STR_1(9), 
  3549 ;; Return value:  Size  Location     Type
  3550 ;;		None               void
  3551 ;; Registers used:
  3552 ;;		wreg, fsr0l, fsr0h, status,2, status,0, pclath, cstack
  3553 ;; Tracked objects:
  3554 ;;		On entry : 0/0
  3555 ;;		On exit  : 0/0
  3556 ;;		Unchanged: 0/0
  3557 ;; Data sizes:     COMMON   BANK0   BANK1   BANK3   BANK2
  3558 ;;      Params:         0       0       0       0       0
  3559 ;;      Locals:         1       0       0       0       0
  3560 ;;      Temps:          1       0       0       0       0
  3561 ;;      Totals:         2       0       0       0       0
  3562 ;;Total ram usage:        2 bytes
  3563 ;; Hardware stack levels used:    1
  3564 ;; Hardware stack levels required when called:    2
  3565 ;; This function calls:
  3566 ;;		_send_char
  3567 ;; This function is called by:
  3568 ;;		_shift_display
  3569 ;;		_mode_display
  3570 ;; This function uses a non-reentrant model
  3571 ;;
  3572                           psect	text587
  3573                           	file	"C:\Users\Phang\Desktop\9.80\PR 19\PR19.c"
  3574                           	line	410
  3575                           	global	__size_of_send_string
  3576  0026                     	__size_of_send_string	equ	__end_of_send_string-_send_string
  3577                           	
  3578  0417                     _send_string:	
  3579                           	opt	stack 4
  3580                           ; Regs used in _send_string: [wreg-fsr0h+status,2+status,0+pclath+cstack]
  3581                           ;send_string@s stored from wreg
  3582  0417  00FA               	movwf	(send_string@s)
  3583                           	line	411
  3584                           	
  3585  0418                     l2517:	
  3586                           ;PR19.c: 411: while (s && *s)send_char (*s++);
  3587  0418  2C2A               	goto	l2523
  3588                           	
  3589  0419                     l808:	
  3590                           	
  3591  0419                     l2519:	
  3592  0419  087A               	movf	(send_string@s),w
  3593  041A  0084               	movwf	fsr0
  3594  041B  120A  118A  2003   	fcall	stringdir
              120A  118A         
  3595  0420  120A  118A  23CD   	fcall	_send_char
              120A  118A         
  3596                           	
  3597  0425                     l2521:	
  3598  0425  3001               	movlw	(01h)
  3599  0426  00F9               	movwf	(??_send_string+0)+0
  3600  0427  0879               	movf	(??_send_string+0)+0,w
  3601  0428  07FA               	addwf	(send_string@s),f
  3602  0429  2C2A               	goto	l2523
  3603                           	
  3604  042A                     l807:	
  3605                           	
  3606  042A                     l2523:	
  3607  042A  087A               	movf	(send_string@s),w
  3608  042B  1D03               	skipz
  3609  042C  2C2E               	goto	u2680
  3610  042D  2C3C               	goto	l812
  3611  042E                     u2680:
  3612                           	
  3613  042E                     l2525:	
  3614  042E  087A               	movf	(send_string@s),w
  3615  042F  0084               	movwf	fsr0
  3616  0430  120A  118A  2003   	fcall	stringdir
              120A  118A         
  3617  0435  3800               	iorlw	0
  3618  0436  1D03               	skipz
  3619  0437  2C39               	goto	u2691
  3620  0438  2C3A               	goto	u2690
  3621  0439                     u2691:
  3622  0439  2C19               	goto	l2519
  3623  043A                     u2690:
  3624  043A  2C3C               	goto	l812
  3625                           	
  3626  043B                     l810:	
  3627  043B  2C3C               	goto	l812
  3628                           	
  3629  043C                     l811:	
  3630                           	line	412
  3631                           	
  3632  043C                     l812:	
  3633  043C  0008               	return
  3634                           	opt stack 0
  3635                           GLOBAL	__end_of_send_string
  3636  043D                     	__end_of_send_string:
  3637 ;; =============== function _send_string ends ============
  3638                           
  3639                           	signat	_send_string,4216
  3640                           	global	_lcd_clr
  3641                           psect	text588,local,class=CODE,delta=2
  3642                           global __ptext588
  3643  0274                     __ptext588:
  3644                           
  3645 ;; *************** function _lcd_clr *****************
  3646 ;; Defined at:
  3647 ;;		line 404 in file "C:\Users\Phang\Desktop\9.80\PR 19\PR19.c"
  3648 ;; Parameters:    Size  Location     Type
  3649 ;;		None
  3650 ;; Auto vars:     Size  Location     Type
  3651 ;;		None
  3652 ;; Return value:  Size  Location     Type
  3653 ;;		None               void
  3654 ;; Registers used:
  3655 ;;		wreg, status,2, status,0, pclath, cstack
  3656 ;; Tracked objects:
  3657 ;;		On entry : 0/0
  3658 ;;		On exit  : 0/0
  3659 ;;		Unchanged: 0/0
  3660 ;; Data sizes:     COMMON   BANK0   BANK1   BANK3   BANK2
  3661 ;;      Params:         0       0       0       0       0
  3662 ;;      Locals:         0       0       0       0       0
  3663 ;;      Temps:          0       0       0       0       0
  3664 ;;      Totals:         0       0       0       0       0
  3665 ;;Total ram usage:        0 bytes
  3666 ;; Hardware stack levels used:    1
  3667 ;; Hardware stack levels required when called:    2
  3668 ;; This function calls:
  3669 ;;		_send_config
  3670 ;;		_delay
  3671 ;; This function is called by:
  3672 ;;		_shift_display
  3673 ;;		_mode_display
  3674 ;; This function uses a non-reentrant model
  3675 ;;
  3676                           psect	text588
  3677                           	file	"C:\Users\Phang\Desktop\9.80\PR 19\PR19.c"
  3678                           	line	404
  3679                           	global	__size_of_lcd_clr
  3680  0014                     	__size_of_lcd_clr	equ	__end_of_lcd_clr-_lcd_clr
  3681                           	
  3682  0274                     _lcd_clr:	
  3683                           	opt	stack 4
  3684                           ; Regs used in _lcd_clr: [wreg+status,2+status,0+pclath+cstack]
  3685                           	line	405
  3686                           	
  3687  0274                     l2515:	
  3688                           ;PR19.c: 405: send_config(0x01);
  3689  0274  3001               	movlw	(01h)
  3690  0275  120A  118A  23A8   	fcall	_send_config
              120A  118A         
  3691                           	line	406
  3692                           ;PR19.c: 406: delay(600);
  3693  027A  3000               	movlw	0
  3694  027B  00F3               	movwf	(?_delay+3)
  3695  027C  3000               	movlw	0
  3696  027D  00F2               	movwf	(?_delay+2)
  3697  027E  3002               	movlw	02h
  3698  027F  00F1               	movwf	(?_delay+1)
  3699  0280  3058               	movlw	058h
  3700  0281  00F0               	movwf	(?_delay)
  3701                           
  3702  0282  120A  118A  248B   	fcall	_delay
              120A  118A         
  3703                           	line	407
  3704                           	
  3705  0287                     l804:	
  3706  0287  0008               	return
  3707                           	opt stack 0
  3708                           GLOBAL	__end_of_lcd_clr
  3709  0288                     	__end_of_lcd_clr:
  3710 ;; =============== function _lcd_clr ends ============
  3711                           
  3712                           	signat	_lcd_clr,88
  3713                           	global	_lcd_goto
  3714                           psect	text589,local,class=CODE,delta=2
  3715                           global __ptext589
  3716  02CD                     __ptext589:
  3717                           
  3718 ;; *************** function _lcd_goto *****************
  3719 ;; Defined at:
  3720 ;;		line 391 in file "C:\Users\Phang\Desktop\9.80\PR 19\PR19.c"
  3721 ;; Parameters:    Size  Location     Type
  3722 ;;  data            1    wreg     unsigned char 
  3723 ;; Auto vars:     Size  Location     Type
  3724 ;;  data            1   10[COMMON] unsigned char 
  3725 ;; Return value:  Size  Location     Type
  3726 ;;		None               void
  3727 ;; Registers used:
  3728 ;;		wreg, status,2, status,0, pclath, cstack
  3729 ;; Tracked objects:
  3730 ;;		On entry : 0/0
  3731 ;;		On exit  : 0/0
  3732 ;;		Unchanged: 0/0
  3733 ;; Data sizes:     COMMON   BANK0   BANK1   BANK3   BANK2
  3734 ;;      Params:         0       0       0       0       0
  3735 ;;      Locals:         1       0       0       0       0
  3736 ;;      Temps:          1       0       0       0       0
  3737 ;;      Totals:         2       0       0       0       0
  3738 ;;Total ram usage:        2 bytes
  3739 ;; Hardware stack levels used:    1
  3740 ;; Hardware stack levels required when called:    2
  3741 ;; This function calls:
  3742 ;;		_send_config
  3743 ;; This function is called by:
  3744 ;;		_shift_display
  3745 ;;		_mode_display
  3746 ;; This function uses a non-reentrant model
  3747 ;;
  3748                           psect	text589
  3749                           	file	"C:\Users\Phang\Desktop\9.80\PR 19\PR19.c"
  3750                           	line	391
  3751                           	global	__size_of_lcd_goto
  3752  001D                     	__size_of_lcd_goto	equ	__end_of_lcd_goto-_lcd_goto
  3753                           	
  3754  02CD                     _lcd_goto:	
  3755                           	opt	stack 4
  3756                           ; Regs used in _lcd_goto: [wreg+status,2+status,0+pclath+cstack]
  3757                           ;lcd_goto@data stored from wreg
  3758  02CD  00FA               	movwf	(lcd_goto@data)
  3759                           	line	392
  3760                           	
  3761  02CE                     l2507:	
  3762                           ;PR19.c: 392: if(data<16)
  3763  02CE  3010               	movlw	(010h)
  3764  02CF  027A               	subwf	(lcd_goto@data),w
  3765  02D0  1803               	skipnc
  3766  02D1  2AD3               	goto	u2671
  3767  02D2  2AD4               	goto	u2670
  3768  02D3                     u2671:
  3769  02D3  2ADC               	goto	l2511
  3770  02D4                     u2670:
  3771                           	line	394
  3772                           	
  3773  02D4                     l2509:	
  3774                           ;PR19.c: 393: {
  3775                           ;PR19.c: 394: send_config(0x80+data);
  3776  02D4  087A               	movf	(lcd_goto@data),w
  3777  02D5  3E80               	addlw	080h
  3778  02D6  120A  118A  23A8   	fcall	_send_config
              120A  118A         
  3779                           	line	395
  3780                           ;PR19.c: 395: }
  3781  02DB  2AE9               	goto	l801
  3782                           	line	396
  3783                           	
  3784  02DC                     l799:	
  3785                           	line	398
  3786                           	
  3787  02DC                     l2511:	
  3788                           ;PR19.c: 396: else
  3789                           ;PR19.c: 397: {
  3790                           ;PR19.c: 398: data=data-20;
  3791  02DC  087A               	movf	(lcd_goto@data),w
  3792  02DD  3EEC               	addlw	0ECh
  3793  02DE  00F9               	movwf	(??_lcd_goto+0)+0
  3794  02DF  0879               	movf	(??_lcd_goto+0)+0,w
  3795  02E0  00FA               	movwf	(lcd_goto@data)
  3796                           	line	399
  3797                           	
  3798  02E1                     l2513:	
  3799                           ;PR19.c: 399: send_config(0xc0+data);
  3800  02E1  087A               	movf	(lcd_goto@data),w
  3801  02E2  3EC0               	addlw	0C0h
  3802  02E3  120A  118A  23A8   	fcall	_send_config
              120A  118A         
  3803  02E8  2AE9               	goto	l801
  3804                           	line	400
  3805                           	
  3806  02E9                     l800:	
  3807                           	line	401
  3808                           	
  3809  02E9                     l801:	
  3810  02E9  0008               	return
  3811                           	opt stack 0
  3812                           GLOBAL	__end_of_lcd_goto
  3813  02EA                     	__end_of_lcd_goto:
  3814 ;; =============== function _lcd_goto ends ============
  3815                           
  3816                           	signat	_lcd_goto,4216
  3817                           	global	_send_char
  3818                           psect	text590,local,class=CODE,delta=2
  3819                           global __ptext590
  3820  03CD                     __ptext590:
  3821                           
  3822 ;; *************** function _send_char *****************
  3823 ;; Defined at:
  3824 ;;		line 380 in file "C:\Users\Phang\Desktop\9.80\PR 19\PR19.c"
  3825 ;; Parameters:    Size  Location     Type
  3826 ;;  data            1    wreg     unsigned char 
  3827 ;; Auto vars:     Size  Location     Type
  3828 ;;  data            1    8[COMMON] unsigned char 
  3829 ;; Return value:  Size  Location     Type
  3830 ;;		None               void
  3831 ;; Registers used:
  3832 ;;		wreg, status,2, status,0, pclath, cstack
  3833 ;; Tracked objects:
  3834 ;;		On entry : 0/0
  3835 ;;		On exit  : 0/0
  3836 ;;		Unchanged: 0/0
  3837 ;; Data sizes:     COMMON   BANK0   BANK1   BANK3   BANK2
  3838 ;;      Params:         0       0       0       0       0
  3839 ;;      Locals:         1       0       0       0       0
  3840 ;;      Temps:          0       0       0       0       0
  3841 ;;      Totals:         1       0       0       0       0
  3842 ;;Total ram usage:        1 bytes
  3843 ;; Hardware stack levels used:    1
  3844 ;; Hardware stack levels required when called:    1
  3845 ;; This function calls:
  3846 ;;		_delay
  3847 ;; This function is called by:
  3848 ;;		_send_string
  3849 ;; This function uses a non-reentrant model
  3850 ;;
  3851                           psect	text590
  3852                           	file	"C:\Users\Phang\Desktop\9.80\PR 19\PR19.c"
  3853                           	line	380
  3854                           	global	__size_of_send_char
  3855  0025                     	__size_of_send_char	equ	__end_of_send_char-_send_char
  3856                           	
  3857  03CD                     _send_char:	
  3858                           	opt	stack 4
  3859                           ; Regs used in _send_char: [wreg+status,2+status,0+pclath+cstack]
  3860                           ;send_char@data stored from wreg
  3861  03CD  00F8               	movwf	(send_char@data)
  3862                           	line	381
  3863                           	
  3864  03CE                     l2495:	
  3865                           ;PR19.c: 381: RB7=1;
  3866  03CE  1283               	bcf	status, 5	;RP0=0, select bank0
  3867  03CF  1303               	bcf	status, 6	;RP1=0, select bank0
  3868  03D0  1786               	bsf	(55/8),(55)&7
  3869                           	line	382
  3870                           	
  3871  03D1                     l2497:	
  3872                           ;PR19.c: 382: PORTD=data;
  3873  03D1  0878               	movf	(send_char@data),w
  3874  03D2  0088               	movwf	(8)	;volatile
  3875                           	line	383
  3876                           	
  3877  03D3                     l2499:	
  3878                           ;PR19.c: 383: RB6=1;
  3879  03D3  1706               	bsf	(54/8),(54)&7
  3880                           	line	384
  3881                           	
  3882  03D4                     l2501:	
  3883                           ;PR19.c: 384: delay(10);
  3884  03D4  3000               	movlw	0
  3885  03D5  00F3               	movwf	(?_delay+3)
  3886  03D6  3000               	movlw	0
  3887  03D7  00F2               	movwf	(?_delay+2)
  3888  03D8  3000               	movlw	0
  3889  03D9  00F1               	movwf	(?_delay+1)
  3890  03DA  300A               	movlw	0Ah
  3891  03DB  00F0               	movwf	(?_delay)
  3892                           
  3893  03DC  120A  118A  248B   	fcall	_delay
              120A  118A         
  3894                           	line	385
  3895                           	
  3896  03E1                     l2503:	
  3897                           ;PR19.c: 385: RB6=0;
  3898  03E1  1283               	bcf	status, 5	;RP0=0, select bank0
  3899  03E2  1303               	bcf	status, 6	;RP1=0, select bank0
  3900  03E3  1306               	bcf	(54/8),(54)&7
  3901                           	line	386
  3902                           	
  3903  03E4                     l2505:	
  3904                           ;PR19.c: 386: delay(10);
  3905  03E4  3000               	movlw	0
  3906  03E5  00F3               	movwf	(?_delay+3)
  3907  03E6  3000               	movlw	0
  3908  03E7  00F2               	movwf	(?_delay+2)
  3909  03E8  3000               	movlw	0
  3910  03E9  00F1               	movwf	(?_delay+1)
  3911  03EA  300A               	movlw	0Ah
  3912  03EB  00F0               	movwf	(?_delay)
  3913                           
  3914  03EC  120A  118A  248B   	fcall	_delay
              120A  118A         
  3915                           	line	387
  3916                           	
  3917  03F1                     l796:	
  3918  03F1  0008               	return
  3919                           	opt stack 0
  3920                           GLOBAL	__end_of_send_char
  3921  03F2                     	__end_of_send_char:
  3922 ;; =============== function _send_char ends ============
  3923                           
  3924                           	signat	_send_char,4216
  3925                           	global	_send_config
  3926                           psect	text591,local,class=CODE,delta=2
  3927                           global __ptext591
  3928  03A8                     __ptext591:
  3929                           
  3930 ;; *************** function _send_config *****************
  3931 ;; Defined at:
  3932 ;;		line 370 in file "C:\Users\Phang\Desktop\9.80\PR 19\PR19.c"
  3933 ;; Parameters:    Size  Location     Type
  3934 ;;  data            1    wreg     unsigned char 
  3935 ;; Auto vars:     Size  Location     Type
  3936 ;;  data            1    8[COMMON] unsigned char 
  3937 ;; Return value:  Size  Location     Type
  3938 ;;		None               void
  3939 ;; Registers used:
  3940 ;;		wreg, status,2, status,0, pclath, cstack
  3941 ;; Tracked objects:
  3942 ;;		On entry : 0/0
  3943 ;;		On exit  : 0/0
  3944 ;;		Unchanged: 0/0
  3945 ;; Data sizes:     COMMON   BANK0   BANK1   BANK3   BANK2
  3946 ;;      Params:         0       0       0       0       0
  3947 ;;      Locals:         1       0       0       0       0
  3948 ;;      Temps:          0       0       0       0       0
  3949 ;;      Totals:         1       0       0       0       0
  3950 ;;Total ram usage:        1 bytes
  3951 ;; Hardware stack levels used:    1
  3952 ;; Hardware stack levels required when called:    1
  3953 ;; This function calls:
  3954 ;;		_delay
  3955 ;; This function is called by:
  3956 ;;		_main
  3957 ;;		_lcd_goto
  3958 ;;		_lcd_clr
  3959 ;;		_shift_display
  3960 ;; This function uses a non-reentrant model
  3961 ;;
  3962                           psect	text591
  3963                           	file	"C:\Users\Phang\Desktop\9.80\PR 19\PR19.c"
  3964                           	line	370
  3965                           	global	__size_of_send_config
  3966  0025                     	__size_of_send_config	equ	__end_of_send_config-_send_config
  3967                           	
  3968  03A8                     _send_config:	
  3969                           	opt	stack 5
  3970                           ; Regs used in _send_config: [wreg+status,2+status,0+pclath+cstack]
  3971                           ;send_config@data stored from wreg
  3972  03A8  00F8               	movwf	(send_config@data)
  3973                           	line	371
  3974                           	
  3975  03A9                     l2483:	
  3976                           ;PR19.c: 371: RB7=0;
  3977  03A9  1283               	bcf	status, 5	;RP0=0, select bank0
  3978  03AA  1303               	bcf	status, 6	;RP1=0, select bank0
  3979  03AB  1386               	bcf	(55/8),(55)&7
  3980                           	line	372
  3981                           	
  3982  03AC                     l2485:	
  3983                           ;PR19.c: 372: PORTD=data;
  3984  03AC  0878               	movf	(send_config@data),w
  3985  03AD  0088               	movwf	(8)	;volatile
  3986                           	line	373
  3987                           	
  3988  03AE                     l2487:	
  3989                           ;PR19.c: 373: RB6=1;
  3990  03AE  1706               	bsf	(54/8),(54)&7
  3991                           	line	374
  3992                           	
  3993  03AF                     l2489:	
  3994                           ;PR19.c: 374: delay(50);
  3995  03AF  3000               	movlw	0
  3996  03B0  00F3               	movwf	(?_delay+3)
  3997  03B1  3000               	movlw	0
  3998  03B2  00F2               	movwf	(?_delay+2)
  3999  03B3  3000               	movlw	0
  4000  03B4  00F1               	movwf	(?_delay+1)
  4001  03B5  3032               	movlw	032h
  4002  03B6  00F0               	movwf	(?_delay)
  4003                           
  4004  03B7  120A  118A  248B   	fcall	_delay
              120A  118A         
  4005                           	line	375
  4006                           	
  4007  03BC                     l2491:	
  4008                           ;PR19.c: 375: RB6=0;
  4009  03BC  1283               	bcf	status, 5	;RP0=0, select bank0
  4010  03BD  1303               	bcf	status, 6	;RP1=0, select bank0
  4011  03BE  1306               	bcf	(54/8),(54)&7
  4012                           	line	376
  4013                           	
  4014  03BF                     l2493:	
  4015                           ;PR19.c: 376: delay(50);
  4016  03BF  3000               	movlw	0
  4017  03C0  00F3               	movwf	(?_delay+3)
  4018  03C1  3000               	movlw	0
  4019  03C2  00F2               	movwf	(?_delay+2)
  4020  03C3  3000               	movlw	0
  4021  03C4  00F1               	movwf	(?_delay+1)
  4022  03C5  3032               	movlw	032h
  4023  03C6  00F0               	movwf	(?_delay)
  4024                           
  4025  03C7  120A  118A  248B   	fcall	_delay
              120A  118A         
  4026                           	line	377
  4027                           	
  4028  03CC                     l793:	
  4029  03CC  0008               	return
  4030                           	opt stack 0
  4031                           GLOBAL	__end_of_send_config
  4032  03CD                     	__end_of_send_config:
  4033 ;; =============== function _send_config ends ============
  4034                           
  4035                           	signat	_send_config,4216
  4036                           	global	_bm_run
  4037                           psect	text592,local,class=CODE,delta=2
  4038                           global __ptext592
  4039  02B6                     __ptext592:
  4040                           
  4041 ;; *************** function _bm_run *****************
  4042 ;; Defined at:
  4043 ;;		line 212 in file "C:\Users\Phang\Desktop\9.80\PR 19\PR19.c"
  4044 ;; Parameters:    Size  Location     Type
  4045 ;;  dir             1    wreg     unsigned char 
  4046 ;; Auto vars:     Size  Location     Type
  4047 ;;  dir             1    0[COMMON] unsigned char 
  4048 ;; Return value:  Size  Location     Type
  4049 ;;		None               void
  4050 ;; Registers used:
  4051 ;;		wreg
  4052 ;; Tracked objects:
  4053 ;;		On entry : 0/0
  4054 ;;		On exit  : 0/0
  4055 ;;		Unchanged: 0/0
  4056 ;; Data sizes:     COMMON   BANK0   BANK1   BANK3   BANK2
  4057 ;;      Params:         0       0       0       0       0
  4058 ;;      Locals:         1       0       0       0       0
  4059 ;;      Temps:          0       0       0       0       0
  4060 ;;      Totals:         1       0       0       0       0
  4061 ;;Total ram usage:        1 bytes
  4062 ;; Hardware stack levels used:    1
  4063 ;; This function calls:
  4064 ;;		Nothing
  4065 ;; This function is called by:
  4066 ;;		_deg_30
  4067 ;;		_deg_90
  4068 ;;		_deg_150
  4069 ;;		_deg_210
  4070 ;;		_deg_270
  4071 ;;		_deg_330
  4072 ;;		_clockwise
  4073 ;;		_deg_60
  4074 ;;		_deg_120
  4075 ;;		_deg_240
  4076 ;;		_deg_300
  4077 ;;		_anticlockwise
  4078 ;; This function uses a non-reentrant model
  4079 ;;
  4080                           psect	text592
  4081                           	file	"C:\Users\Phang\Desktop\9.80\PR 19\PR19.c"
  4082                           	line	212
  4083                           	global	__size_of_bm_run
  4084  0017                     	__size_of_bm_run	equ	__end_of_bm_run-_bm_run
  4085                           	
  4086  02B6                     _bm_run:	
  4087                           	opt	stack 5
  4088                           ; Regs used in _bm_run: [wreg]
  4089                           ;bm_run@dir stored from wreg
  4090  02B6  00F0               	movwf	(bm_run@dir)
  4091                           	line	213
  4092                           	
  4093  02B7                     l2431:	
  4094                           ;PR19.c: 213: RB3=!dir;
  4095  02B7  08F0               	movf	(bm_run@dir)
  4096  02B8  1903               	skipnz
  4097  02B9  2ABB               	goto	u2631
  4098  02BA  2ABF               	goto	u2630
  4099                           	
  4100  02BB                     u2631:
  4101  02BB  1283               	bcf	status, 5	;RP0=0, select bank0
  4102  02BC  1303               	bcf	status, 6	;RP1=0, select bank0
  4103  02BD  1586               	bsf	(51/8),(51)&7
  4104  02BE  2AC2               	goto	u2644
  4105  02BF                     u2630:
  4106  02BF  1283               	bcf	status, 5	;RP0=0, select bank0
  4107  02C0  1303               	bcf	status, 6	;RP1=0, select bank0
  4108  02C1  1186               	bcf	(51/8),(51)&7
  4109  02C2                     u2644:
  4110                           	line	214
  4111                           ;PR19.c: 214: RB4=dir;
  4112  02C2  1870               	btfsc	(bm_run@dir),0
  4113  02C3  2AC5               	goto	u2651
  4114  02C4  2AC9               	goto	u2650
  4115                           	
  4116  02C5                     u2651:
  4117  02C5  1283               	bcf	status, 5	;RP0=0, select bank0
  4118  02C6  1303               	bcf	status, 6	;RP1=0, select bank0
  4119  02C7  1606               	bsf	(52/8),(52)&7
  4120  02C8  2ACC               	goto	u2664
  4121  02C9                     u2650:
  4122  02C9  1283               	bcf	status, 5	;RP0=0, select bank0
  4123  02CA  1303               	bcf	status, 6	;RP1=0, select bank0
  4124  02CB  1206               	bcf	(52/8),(52)&7
  4125  02CC                     u2664:
  4126                           	line	215
  4127                           	
  4128  02CC                     l743:	
  4129  02CC  0008               	return
  4130                           	opt stack 0
  4131                           GLOBAL	__end_of_bm_run
  4132  02CD                     	__end_of_bm_run:
  4133 ;; =============== function _bm_run ends ============
  4134                           
  4135                           	signat	_bm_run,4216
  4136                           	global	_rm_run
  4137                           psect	text593,local,class=CODE,delta=2
  4138                           global __ptext593
  4139  029F                     __ptext593:
  4140                           
  4141 ;; *************** function _rm_run *****************
  4142 ;; Defined at:
  4143 ;;		line 206 in file "C:\Users\Phang\Desktop\9.80\PR 19\PR19.c"
  4144 ;; Parameters:    Size  Location     Type
  4145 ;;  dir             1    wreg     unsigned char 
  4146 ;; Auto vars:     Size  Location     Type
  4147 ;;  dir             1    0[COMMON] unsigned char 
  4148 ;; Return value:  Size  Location     Type
  4149 ;;		None               void
  4150 ;; Registers used:
  4151 ;;		wreg
  4152 ;; Tracked objects:
  4153 ;;		On entry : 0/0
  4154 ;;		On exit  : 0/0
  4155 ;;		Unchanged: 0/0
  4156 ;; Data sizes:     COMMON   BANK0   BANK1   BANK3   BANK2
  4157 ;;      Params:         0       0       0       0       0
  4158 ;;      Locals:         1       0       0       0       0
  4159 ;;      Temps:          0       0       0       0       0
  4160 ;;      Totals:         1       0       0       0       0
  4161 ;;Total ram usage:        1 bytes
  4162 ;; Hardware stack levels used:    1
  4163 ;; This function calls:
  4164 ;;		Nothing
  4165 ;; This function is called by:
  4166 ;;		_deg_0
  4167 ;;		_deg_90
  4168 ;;		_deg_150
  4169 ;;		_deg_180
  4170 ;;		_deg_270
  4171 ;;		_deg_330
  4172 ;;		_clockwise
  4173 ;;		_deg_60
  4174 ;;		_deg_120
  4175 ;;		_deg_240
  4176 ;;		_deg_300
  4177 ;;		_anticlockwise
  4178 ;; This function uses a non-reentrant model
  4179 ;;
  4180                           psect	text593
  4181                           	file	"C:\Users\Phang\Desktop\9.80\PR 19\PR19.c"
  4182                           	line	206
  4183                           	global	__size_of_rm_run
  4184  0017                     	__size_of_rm_run	equ	__end_of_rm_run-_rm_run
  4185                           	
  4186  029F                     _rm_run:	
  4187                           	opt	stack 5
  4188                           ; Regs used in _rm_run: [wreg]
  4189                           ;rm_run@dir stored from wreg
  4190  029F  00F0               	movwf	(rm_run@dir)
  4191                           	line	207
  4192                           	
  4193  02A0                     l2429:	
  4194                           ;PR19.c: 207: RC4=dir;
  4195  02A0  1870               	btfsc	(rm_run@dir),0
  4196  02A1  2AA3               	goto	u2591
  4197  02A2  2AA7               	goto	u2590
  4198                           	
  4199  02A3                     u2591:
  4200  02A3  1283               	bcf	status, 5	;RP0=0, select bank0
  4201  02A4  1303               	bcf	status, 6	;RP1=0, select bank0
  4202  02A5  1607               	bsf	(60/8),(60)&7
  4203  02A6  2AAA               	goto	u2604
  4204  02A7                     u2590:
  4205  02A7  1283               	bcf	status, 5	;RP0=0, select bank0
  4206  02A8  1303               	bcf	status, 6	;RP1=0, select bank0
  4207  02A9  1207               	bcf	(60/8),(60)&7
  4208  02AA                     u2604:
  4209                           	line	208
  4210                           ;PR19.c: 208: RC5=!dir;
  4211  02AA  08F0               	movf	(rm_run@dir)
  4212  02AB  1903               	skipnz
  4213  02AC  2AAE               	goto	u2611
  4214  02AD  2AB2               	goto	u2610
  4215                           	
  4216  02AE                     u2611:
  4217  02AE  1283               	bcf	status, 5	;RP0=0, select bank0
  4218  02AF  1303               	bcf	status, 6	;RP1=0, select bank0
  4219  02B0  1687               	bsf	(61/8),(61)&7
  4220  02B1  2AB5               	goto	u2624
  4221  02B2                     u2610:
  4222  02B2  1283               	bcf	status, 5	;RP0=0, select bank0
  4223  02B3  1303               	bcf	status, 6	;RP1=0, select bank0
  4224  02B4  1287               	bcf	(61/8),(61)&7
  4225  02B5                     u2624:
  4226                           	line	209
  4227                           	
  4228  02B5                     l740:	
  4229  02B5  0008               	return
  4230                           	opt stack 0
  4231                           GLOBAL	__end_of_rm_run
  4232  02B6                     	__end_of_rm_run:
  4233 ;; =============== function _rm_run ends ============
  4234                           
  4235                           	signat	_rm_run,4216
  4236                           	global	_lm_run
  4237                           psect	text594,local,class=CODE,delta=2
  4238                           global __ptext594
  4239  0288                     __ptext594:
  4240                           
  4241 ;; *************** function _lm_run *****************
  4242 ;; Defined at:
  4243 ;;		line 200 in file "C:\Users\Phang\Desktop\9.80\PR 19\PR19.c"
  4244 ;; Parameters:    Size  Location     Type
  4245 ;;  dir             1    wreg     unsigned char 
  4246 ;; Auto vars:     Size  Location     Type
  4247 ;;  dir             1    0[COMMON] unsigned char 
  4248 ;; Return value:  Size  Location     Type
  4249 ;;		None               void
  4250 ;; Registers used:
  4251 ;;		wreg
  4252 ;; Tracked objects:
  4253 ;;		On entry : 0/0
  4254 ;;		On exit  : 0/0
  4255 ;;		Unchanged: 0/0
  4256 ;; Data sizes:     COMMON   BANK0   BANK1   BANK3   BANK2
  4257 ;;      Params:         0       0       0       0       0
  4258 ;;      Locals:         1       0       0       0       0
  4259 ;;      Temps:          0       0       0       0       0
  4260 ;;      Totals:         1       0       0       0       0
  4261 ;;Total ram usage:        1 bytes
  4262 ;; Hardware stack levels used:    1
  4263 ;; This function calls:
  4264 ;;		Nothing
  4265 ;; This function is called by:
  4266 ;;		_deg_0
  4267 ;;		_deg_30
  4268 ;;		_deg_90
  4269 ;;		_deg_180
  4270 ;;		_deg_210
  4271 ;;		_deg_270
  4272 ;;		_clockwise
  4273 ;;		_deg_60
  4274 ;;		_deg_120
  4275 ;;		_deg_240
  4276 ;;		_deg_300
  4277 ;;		_anticlockwise
  4278 ;; This function uses a non-reentrant model
  4279 ;;
  4280                           psect	text594
  4281                           	file	"C:\Users\Phang\Desktop\9.80\PR 19\PR19.c"
  4282                           	line	200
  4283                           	global	__size_of_lm_run
  4284  0017                     	__size_of_lm_run	equ	__end_of_lm_run-_lm_run
  4285                           	
  4286  0288                     _lm_run:	
  4287                           	opt	stack 5
  4288                           ; Regs used in _lm_run: [wreg]
  4289                           ;lm_run@dir stored from wreg
  4290  0288  00F0               	movwf	(lm_run@dir)
  4291                           	line	201
  4292                           	
  4293  0289                     l2427:	
  4294                           ;PR19.c: 201: RC0=dir;
  4295  0289  1870               	btfsc	(lm_run@dir),0
  4296  028A  2A8C               	goto	u2551
  4297  028B  2A90               	goto	u2550
  4298                           	
  4299  028C                     u2551:
  4300  028C  1283               	bcf	status, 5	;RP0=0, select bank0
  4301  028D  1303               	bcf	status, 6	;RP1=0, select bank0
  4302  028E  1407               	bsf	(56/8),(56)&7
  4303  028F  2A93               	goto	u2564
  4304  0290                     u2550:
  4305  0290  1283               	bcf	status, 5	;RP0=0, select bank0
  4306  0291  1303               	bcf	status, 6	;RP1=0, select bank0
  4307  0292  1007               	bcf	(56/8),(56)&7
  4308  0293                     u2564:
  4309                           	line	202
  4310                           ;PR19.c: 202: RC3=!dir;
  4311  0293  08F0               	movf	(lm_run@dir)
  4312  0294  1903               	skipnz
  4313  0295  2A97               	goto	u2571
  4314  0296  2A9B               	goto	u2570
  4315                           	
  4316  0297                     u2571:
  4317  0297  1283               	bcf	status, 5	;RP0=0, select bank0
  4318  0298  1303               	bcf	status, 6	;RP1=0, select bank0
  4319  0299  1587               	bsf	(59/8),(59)&7
  4320  029A  2A9E               	goto	u2584
  4321  029B                     u2570:
  4322  029B  1283               	bcf	status, 5	;RP0=0, select bank0
  4323  029C  1303               	bcf	status, 6	;RP1=0, select bank0
  4324  029D  1187               	bcf	(59/8),(59)&7
  4325  029E                     u2584:
  4326                           	line	203
  4327                           	
  4328  029E                     l737:	
  4329  029E  0008               	return
  4330                           	opt stack 0
  4331                           GLOBAL	__end_of_lm_run
  4332  029F                     	__end_of_lm_run:
  4333 ;; =============== function _lm_run ends ============
  4334                           
  4335                           	signat	_lm_run,4216
  4336                           	global	_delay
  4337                           psect	text595,local,class=CODE,delta=2
  4338                           global __ptext595
  4339  048B                     __ptext595:
  4340                           
  4341 ;; *************** function _delay *****************
  4342 ;; Defined at:
  4343 ;;		line 363 in file "C:\Users\Phang\Desktop\9.80\PR 19\PR19.c"
  4344 ;; Parameters:    Size  Location     Type
  4345 ;;  data            4    0[COMMON] unsigned long 
  4346 ;; Auto vars:     Size  Location     Type
  4347 ;;		None
  4348 ;; Return value:  Size  Location     Type
  4349 ;;		None               void
  4350 ;; Registers used:
  4351 ;;		wreg
  4352 ;; Tracked objects:
  4353 ;;		On entry : 0/0
  4354 ;;		On exit  : 0/0
  4355 ;;		Unchanged: 0/0
  4356 ;; Data sizes:     COMMON   BANK0   BANK1   BANK3   BANK2
  4357 ;;      Params:         4       0       0       0       0
  4358 ;;      Locals:         0       0       0       0       0
  4359 ;;      Temps:          4       0       0       0       0
  4360 ;;      Totals:         8       0       0       0       0
  4361 ;;Total ram usage:        8 bytes
  4362 ;; Hardware stack levels used:    1
  4363 ;; This function calls:
  4364 ;;		Nothing
  4365 ;; This function is called by:
  4366 ;;		_main
  4367 ;;		_alphamode
  4368 ;;		_betamode
  4369 ;;		_send_config
  4370 ;;		_send_char
  4371 ;;		_lcd_clr
  4372 ;;		_shift_display
  4373 ;;		_mode_display
  4374 ;; This function uses a non-reentrant model
  4375 ;;
  4376                           psect	text595
  4377                           	file	"C:\Users\Phang\Desktop\9.80\PR 19\PR19.c"
  4378                           	line	363
  4379                           	global	__size_of_delay
  4380  0030                     	__size_of_delay	equ	__end_of_delay-_delay
  4381                           	
  4382  048B                     _delay:	
  4383                           	opt	stack 6
  4384                           ; Regs used in _delay: [wreg]
  4385                           	line	364
  4386                           	
  4387  048B                     l2421:	
  4388                           ;PR19.c: 364: for( ;data>0;data-=1);
  4389  048B  0873               	movf	(delay@data+3),w
  4390  048C  0472               	iorwf	(delay@data+2),w
  4391  048D  0471               	iorwf	(delay@data+1),w
  4392  048E  0470               	iorwf	(delay@data),w
  4393  048F  1D03               	skipz
  4394  0490  2C92               	goto	u2521
  4395  0491  2C93               	goto	u2520
  4396  0492                     u2521:
  4397  0492  2C95               	goto	l2425
  4398  0493                     u2520:
  4399  0493  2CBA               	goto	l790
  4400                           	
  4401  0494                     l2423:	
  4402  0494  2CBA               	goto	l790
  4403                           	
  4404  0495                     l788:	
  4405                           	
  4406  0495                     l2425:	
  4407  0495  3001               	movlw	01h
  4408  0496  00F4               	movwf	((??_delay+0)+0)
  4409  0497  3000               	movlw	0
  4410  0498  00F5               	movwf	((??_delay+0)+0+1)
  4411  0499  3000               	movlw	0
  4412  049A  00F6               	movwf	((??_delay+0)+0+2)
  4413  049B  3000               	movlw	0
  4414  049C  00F7               	movwf	((??_delay+0)+0+3)
  4415  049D  0874               	movf	0+(??_delay+0)+0,w
  4416  049E  02F0               	subwf	(delay@data),f
  4417  049F  0875               	movf	1+(??_delay+0)+0,w
  4418  04A0  1C03               	skipc
  4419  04A1  0F75               	incfsz	1+(??_delay+0)+0,w
  4420  04A2  2CA4               	goto	u2535
  4421  04A3  2CA5               	goto	u2536
  4422  04A4                     u2535:
  4423  04A4  02F1               	subwf	(delay@data+1),f
  4424  04A5                     u2536:
  4425  04A5  0876               	movf	2+(??_delay+0)+0,w
  4426  04A6  1C03               	skipc
  4427  04A7  0F76               	incfsz	2+(??_delay+0)+0,w
  4428  04A8  2CAA               	goto	u2537
  4429  04A9  2CAB               	goto	u2538
  4430  04AA                     u2537:
  4431  04AA  02F2               	subwf	(delay@data+2),f
  4432  04AB                     u2538:
  4433  04AB  0877               	movf	3+(??_delay+0)+0,w
  4434  04AC  1C03               	skipc
  4435  04AD  0F77               	incfsz	3+(??_delay+0)+0,w
  4436  04AE  2CB0               	goto	u2539
  4437  04AF  2CB1               	goto	u2530
  4438  04B0                     u2539:
  4439  04B0  02F3               	subwf	(delay@data+3),f
  4440  04B1                     u2530:
  4441                           
  4442  04B1  0873               	movf	(delay@data+3),w
  4443  04B2  0472               	iorwf	(delay@data+2),w
  4444  04B3  0471               	iorwf	(delay@data+1),w
  4445  04B4  0470               	iorwf	(delay@data),w
  4446  04B5  1D03               	skipz
  4447  04B6  2CB8               	goto	u2541
  4448  04B7  2CB9               	goto	u2540
  4449  04B8                     u2541:
  4450  04B8  2C95               	goto	l2425
  4451  04B9                     u2540:
  4452  04B9  2CBA               	goto	l790
  4453                           	
  4454  04BA                     l789:	
  4455                           	line	365
  4456                           	
  4457  04BA                     l790:	
  4458  04BA  0008               	return
  4459                           	opt stack 0
  4460                           GLOBAL	__end_of_delay
  4461  04BB                     	__end_of_delay:
  4462 ;; =============== function _delay ends ============
  4463                           
  4464                           	signat	_delay,4216
  4465                           psect	text596,local,class=CODE,delta=2
  4466                           global __ptext596
  4467  0000                     __ptext596:
  4468                           	global	btemp
  4469  007E                     	btemp set 07Eh
  4470                           
  4471                           	DABS	1,126,2	;btemp
  4472                           	global	wtemp0
  4473  007E                     	wtemp0 set btemp


HI-TECH Software PICC Macro Assembler V9.80 build 6738 
Symbol Table                                                                                   Wed Jun 20 23:05:08 2012

                     _i 0020                       pc 0002                      fsr 0004                     l710 068D  
                   l711 067E                     l703 064B                     l800 02E9                     l712 0694  
                   l704 0678                     l801 02E9                     l713 06A1                     l705 0661  
                   l810 043B                     l722 0570                     l730 0603                     l714 0695  
                   l706 0671                     l811 043C                     l723 04F1                     l731 0603  
                   l715 069A                     l707 0662                     l740 02B5                     l804 0287  
                   l812 043C                     l820 07FF                     l724 0579                     l716 06AB  
                   l708 0678                     l821 0707                     l725 0579                     l717 06B4  
                   l709 06AB                     l830 075A                     l822 0726                     l734 0273  
                   l718 06B5                     l743 02CC                     l807 042A                     l815 07F2  
                   l831 077A                     l823 0708                     l719 06B5                     l808 0419  
                   l840 07DC                     l824 070E                     l816 06B9                     l728 05FA  
                   l737 029E                     l833 0779                     l825 072C                     l817 06FE  
                   l761 0387                     l729 057B                     l826 07FF                     l834 078E  
                   l818 06DE                     l746 0308                     l835 07BE                     l827 072D  
                   l819 06E4                     l843 04C5                     l755 048A                     l828 075B  
                   l844 04EF                     l764 0327                     l837 07BD                     l773 0463  
                   l749 0367                     l790 04BA                     l838 07DD                     l782 0416  
                   l767 03A7                     l793 03CC                     l779 0347                     l788 0495  
                   l796 03F1                     l789 04BA                     l799 02DC                     _RA0 0028  
                   _RA1 0029                     _RA2 002A                     _RA3 002B                     _RC0 0038  
                   _RB3 0033                     _RB4 0034                     _RC3 003B                     _RC4 003C  
                   _RB6 0036                     _RC5 003D                     _RB7 0037                     _PR2 0092  
                   fsr0 0004         send_config@data 0078                    l2421 048B                    l2501 03D4  
                  l2423 0494                    l2431 02B7                    l2503 03E1                    l2511 02DC  
                  l2425 0495                    l2505 03E4                    l2513 02E1                    l2521 0425  
                  l2601 07D7                    l2427 0289                    l2507 02CE                    l2515 0274  
                  l2523 042A                    l2603 07DD                    l2531 06C0                    l2611 04C4  
                  l2429 02A0                    l2509 02D4                    l2525 042E                    l2517 0418  
                  l2605 07F1                    l2541 06E3                    l2533 06C5                    l2613 04C5  
                  l2621 043D                    l2701 036B                    l2519 0419                    l2551 070E  
                  l2543 06E4                    l2535 06CB                    l2607 07F2                    l2527 06B8  
                  l2615 04D0                    l2623 0447                    l2631 02EA                    l2703 036D  
                  l2711 0388                    l2561 0737                    l2553 0721                    l2545 06F7  
                  l2537 06D1                    l2529 06B9                    l2617 04D6                    l2609 04BC  
                  l2625 044D                    l2633 02EF                    l2641 0464                    l2705 0371  
                  l2721 039D                    l2713 038C                    l2801 063B                    l2491 03BC  
                  l2483 03A9                    l2571 0755                    l2563 073D                    l2555 0726  
                  l2547 06FE                    l2539 06D7                    l2619 04E2                    l2627 0453  
                  l2635 02F2                    l2643 046E                    l2651 0309                    l2707 0377  
                  l2715 038D                    l2731 0515                    l2723 04F0                    l2811 0647  
                  l2803 063D                    l2493 03BF                    l2485 03AC                    l2581 078E  
                  l2573 075B                    l2565 0743                    l2557 072D                    l2549 070D  
                  l2629 0459                    l2637 02F8                    l2645 0474                    l2653 030E  
                  l2661 03F2                    l2709 037D                    l2717 0391                    l2741 0550  
                  l2733 051A                    l2725 04F1                    l2821 0663                    l2813 064B  
                  l2805 0641                    l2487 03AE                    l2495 03CE                    l2591 07AC  
                  l2583 0795                    l2575 076E                    l2567 0749                    l2559 0732  
                  l2639 02FE                    l2647 047A                    l2655 0311                    l2663 03FA  
                  l2671 0261                    l2719 0397                    l2743 0562                    l2735 052C  
                  l2727 04F6                    l2751 0580                    l2831 0695                    l2823 0671  
                  l2815 0651                    l2807 0645                    l2489 03AF                    l2497 03D1  
                  l2593 07B2                    l2585 079A                    l2577 0774                    l2569 074F  
                  l2649 0480                    l2657 0317                    l2665 0400                    l2673 0269  
                  l2681 0331                    l2737 0539                    l2729 0503                    l2745 0570  
                  l2761 05C3                    l2753 058D                    l2833 06A0                    l2825 067D  
                  l2817 0655                    l2809 0646                    l2499 03D3                    l2595 07B8  
                  l2587 07A0                    l2579 077A                    l2659 031D                    l2667 0406  
                  l2683 0337                    l2675 0328                    l2691 034D                    l2739 054B  
                  l2763 05D5                    l2755 059F                    l2747 057A                    l2835 06A1  
                  l2827 067F                    l2819 065B                    l2771 0604                    l2597 07BE  
                  l2589 07A6                    l2669 040C                    l2685 033D                    l2677 032B  
                  l2693 0351                    l2765 05DA                    l2757 05A4                    l2749 057B  
                  l2837 06AE                    l2829 068D                    l2781 0610                    l2773 060A  
                  l2599 07D1                    l2679 032D                    l2695 0357                    l2687 0348  
                  l2767 05EC                    l2759 05B6                    l2791 0624                    l2783 0611  
                  l2775 060B                    l2697 035D                    l2689 034C                    l2769 05FA  
                  l2793 062A                    l2785 0612                    l2777 060C                    l2699 0368  
                  l2795 0630                    l2787 0618                    l2779 060D                    l2797 0633  
                  l2789 061E                    l2799 0637                    STR_1 0010                    STR_2 0056  
                  STR_3 005D                    STR_4 0048                    STR_5 0068                    STR_6 0048  
                  STR_7 007B                    STR_9 007E                    u2520 0493                    u2521 0492  
                  u2530 04B1                    u2610 02B2                    u2611 02AE                    u2540 04B9  
                  u2604 02AA                    u2700 06E2                    u2541 04B8                    u2701 06E1  
                  u2550 0290                    u2630 02BF                    u2710 0706                    u2535 04A4  
                  u2551 028C                    u2631 02BB                    u2711 0705                    u2536 04A5  
                  u2624 02B5                    u2800 07D7                    u2720 070C                    u2537 04AA  
                  u2801 07D6                    u2721 070B                    u2538 04AB                    u2570 029B  
                  u2650 02C9                    u2810 07DB                    u2730 072B                    u2539 04B0  
                  u2571 0297                    u2651 02C5                    u2811 07DA                    u2731 072A  
                  u2564 0293                    u2644 02C2                    u2740 0755                    u2820 04C3  
                  u2741 0754                    u2821 04C2                    u2590 02A7                    u2670 02D4  
                  u2750 0759                    u2830 0578                    u2591 02A3                    u2671 02D3  
                  u2751 0758                    u2831 0577                    u2584 029E                    u2664 02CC  
                  u2680 042E                    u2760 0774                    u2840 0602                    u2761 0773  
                  u2841 0601                    u2690 043A                    u2770 0778                    u2850 0651  
                  u2691 0439                    u2771 0777                    u2851 0650                    u2780 07B8  
                  u2860 065B                    u2781 07B7                    u2861 065A                    u2790 07BC  
                  u2870 0677                    u2791 07BB                    u2871 0676                    u2880 067C  
                  u2881 067B                    u2890 0693                    u2891 0692                    _main 0604  
                  btemp 007E            lcd_goto@data 007A           mode_display@x 007C           mode_display@y 007B  
                  start 0000                   ?_main 0070                   STR_10 0048                   STR_11 0063  
                 STR_21 0073                   STR_13 006F                   STR_22 0048                   STR_14 0048  
                 STR_15 0077                   STR_23 005B                   STR_31 004F                   STR_16 0048  
                 STR_32 0010                   STR_25 0067                   STR_17 005F                   STR_33 0009  
                 STR_26 0048                   STR_18 0048                   STR_34 0027                   STR_35 0009  
                 STR_19 006B                   STR_27 003E                   STR_28 005E                   STR_36 0033  
                 STR_29 0019         __end_of_deg_210 03A8         __end_of_deg_150 0388         __end_of_deg_330 0348  
       __end_of_deg_180 0328         __end_of_deg_270 0464                   _T2CON 0012                   _PORTB 0006  
                 _PORTC 0007                   _PORTD 0008                   _TRISA 0085                   _TRISB 0086  
                 _TRISC 0087                   _TRISD 0088         __end_of_lcd_clr 0288                   _deg_0 02EA  
                 _delay 048B                   _shift 0021                   pclath 000A                   status 0003  
                 wtemp0 007E            __end_of_main 06B8                  ??_main 0022                  ?_deg_0 0070  
                ?_delay 0070            ?_send_config 0070                  _ADCON1 009F                  _CCPR1L 0015  
                _CCPR2L 001B                  _CCPR3L 0095            ?_send_string 0070        __end_of_betamode 0604  
      __end_of_lcd_goto 02EA                  _deg_30 0348                  _deg_90 0464               ??_deg_210 007D  
             ??_deg_150 007D               ??_deg_330 007D               ??_deg_180 007D               ??_deg_270 007D  
                _bm_run 02B6                  _m_stop 0261                  _lm_run 0288                  _rm_run 029F  
             ??_lcd_clr 0079           ?_mode_display 007B   __end_of_shift_display 0800          __pcstackCOMMON 0070  
         __end_of_deg_0 0309           __end_of_delay 04BB      __size_of_alphamode 008A          ??_mode_display 007C  
    __size_of_clockwise 0025                 ??_deg_0 007D                 ??_delay 0074              __pbssBANK0 0020  
            __pmaintext 0604                 ?_deg_30 0070                 ?_deg_90 0070                 ?_bm_run 0070  
    __size_of_send_char 0025                 _CCP1CON 0017                 _CCP2CON 001D                 _CCP3CON 0097  
               ?_m_stop 0070                 ?_lm_run 0070                 ?_rm_run 0070               ?_betamode 0070  
             ?_lcd_goto 0070    __size_of_send_config 0025       __end_of_alphamode 057A    __size_of_send_string 0026  
     __end_of_clockwise 0417         __size_of_deg_30 0020         __size_of_deg_90 0027                 _deg_210 0388  
               _deg_150 0368                 _deg_330 0328                 _deg_180 0309                 _deg_270 043D  
       __size_of_bm_run 0017         __size_of_m_stop 0013         __size_of_lm_run 0017         __size_of_rm_run 0017  
               _lcd_clr 0274              ??_betamode 007E              ??_lcd_goto 0079    end_of_initialization 025D  
     __end_of_send_char 03F2    __end_of_mode_display 04F0           send_char@data 0078          __end_of_deg_30 0368  
        __end_of_deg_90 048B          __end_of_bm_run 02CD          __end_of_m_stop 0274          __end_of_lm_run 029F  
        __end_of_rm_run 02B6     start_initialization 025B                ??_deg_30 007D                ??_deg_90 007D  
              ??_bm_run 0070                ??_m_stop 007D                ??_lm_run 0070                ??_rm_run 0070  
__size_of_shift_display 0148           __pcstackBANK0 0022       __size_of_betamode 008A   __size_of_mode_display 0035  
     __size_of_lcd_goto 001D               _alphamode 04F0                ?_deg_210 0070                ?_deg_150 0070  
             __ptext580 03F2               __ptext572 0000               __ptext581 0309               __ptext573 057A  
             __ptext590 03CD               __ptext582 0464               __ptext574 04F0               __ptext591 03A8  
             __ptext583 02EA               __ptext575 0388                ?_deg_330 0070               __ptext592 02B6  
             __ptext584 043D               __ptext576 0368               __ptext593 029F               __ptext585 04BB  
             __ptext577 0348                ?_deg_180 0070               __ptext594 0288               __ptext586 06B8  
             __ptext578 0328               __ptext595 048B               __ptext587 0417               __ptext579 0261  
              ?_deg_270 0070               __ptext596 0000               __ptext588 0274               __ptext589 02CD  
             _clockwise 03F2               __pstrings 0003                ?_lcd_clr 0070            _mode_display 04BB  
         ??_send_config 0078          __size_of_deg_0 001F          __size_of_delay 0030               delay@data 0070  
         ??_send_string 0079               bm_run@dir 0070               _send_char 03CD           _shift_display 06B8  
            ?_alphamode 0070              ?_clockwise 0070             __stringbase 0008     __end_of_send_config 03CD  
        ?_shift_display 0070              ?_send_char 0070            send_string@s 007A     __end_of_send_string 043D  
             lm_run@dir 0070        __size_of_deg_210 0020        __size_of_deg_150 0020        __size_of_deg_330 0020  
      __size_of_deg_180 001F        __size_of_deg_270 0027        __size_of_lcd_clr 0014                _betamode 057A  
              _lcd_goto 02CD           __size_of_main 00B4               rm_run@dir 0070             ??_alphamode 007E  
           ??_clockwise 007D             _send_config 03A8         ??_shift_display 007B             _send_string 0417  
           ??_send_char 0078               stringcode 0003                stringdir 0003                stringtab 0003  
