

HI-TECH Software PIC LITE Macro Assembler V1.00 build 12136 
                                                                                               Wed Jun 27 15:10:55 2012

HI-TECH Software Omniscient Code Generator (Lite mode) build 12136
     1  0000                     opt subtitle "HI-TECH Software Omniscient Code Generator (Lite mode) build 12136"
     2                           
     3                           opt pagewidth 120
     4                           
     5                           	opt lm
     6                           
     7                           	processor	16F777
     8                           clrc	macro
     9                           	bcf	3,0
    10  0000                     	endm
    11                           clrz	macro
    12                           	bcf	3,2
    13  0000                     	endm
    14                           setc	macro
    15                           	bsf	3,0
    16  0000                     	endm
    17                           setz	macro
    18                           	bsf	3,2
    19  0000                     	endm
    20                           skipc	macro
    21                           	btfss	3,0
    22  0000                     	endm
    23                           skipz	macro
    24                           	btfss	3,2
    25  0000                     	endm
    26                           skipnc	macro
    27                           	btfsc	3,0
    28  0000                     	endm
    29                           skipnz	macro
    30                           	btfsc	3,2
    31  0000                     	endm
    32  0000                     indf	equ	0
    33  0000                     indf0	equ	0
    34  0002                     pc	equ	2
    35  0002                     pcl	equ	2
    36  0003                     status	equ	3
    37  0004                     fsr	equ	4
    38  0004                     fsr0	equ	4
    39  0001                     c	equ	1
    40  0000                     z	equ	0
    41  000A                     pclath	equ	10
    42                           # 14 "PR19.c"
    43                           psect config,class=CONFIG,delta=2 ;# 
    44                           # 14 "PR19.c"
    45  2007  3FA2               dw 0x3FA2 ;# 
    46                           # 15 "PR19.c"
    47                           psect config,class=CONFIG,delta=2 ;# 
    48                           # 15 "PR19.c"
    49  2008  3FBC               dw 0x3FBC ;# 
    50                           	FNCALL	_main,_send_config
    51                           	FNCALL	_main,_delay
    52                           	FNCALL	_main,_alphamode
    53                           	FNCALL	_main,_betamode
    54                           	FNCALL	_main,_shift_display
    55                           	FNCALL	_alphamode,_deg_270
    56                           	FNCALL	_alphamode,_delay
    57                           	FNCALL	_alphamode,_deg_0
    58                           	FNCALL	_alphamode,_deg_90
    59                           	FNCALL	_alphamode,_deg_180
    60                           	FNCALL	_alphamode,_clockwise
    61                           	FNCALL	_alphamode,_m_stop
    62                           	FNCALL	_betamode,_deg_330
    63                           	FNCALL	_betamode,_delay
    64                           	FNCALL	_betamode,_deg_0
    65                           	FNCALL	_betamode,_deg_30
    66                           	FNCALL	_betamode,_deg_150
    67                           	FNCALL	_betamode,_deg_180
    68                           	FNCALL	_betamode,_deg_210
    69                           	FNCALL	_betamode,_m_stop
    70                           	FNCALL	_shift_display,_lcd_clr
    71                           	FNCALL	_shift_display,_lcd_goto
    72                           	FNCALL	_shift_display,_send_string
    73                           	FNCALL	_shift_display,_send_config
    74                           	FNCALL	_shift_display,_delay
    75                           	FNCALL	_deg_270,_lm_run
    76                           	FNCALL	_deg_270,_rm_run
    77                           	FNCALL	_deg_270,_bm_run
    78                           	FNCALL	_deg_270,_mode_display
    79                           	FNCALL	_deg_0,_lm_run
    80                           	FNCALL	_deg_0,_rm_run
    81                           	FNCALL	_deg_0,_mode_display
    82                           	FNCALL	_deg_90,_lm_run
    83                           	FNCALL	_deg_90,_rm_run
    84                           	FNCALL	_deg_90,_bm_run
    85                           	FNCALL	_deg_90,_mode_display
    86                           	FNCALL	_deg_180,_lm_run
    87                           	FNCALL	_deg_180,_rm_run
    88                           	FNCALL	_deg_180,_mode_display
    89                           	FNCALL	_clockwise,_lm_run
    90                           	FNCALL	_clockwise,_rm_run
    91                           	FNCALL	_clockwise,_bm_run
    92                           	FNCALL	_clockwise,_mode_display
    93                           	FNCALL	_m_stop,_mode_display
    94                           	FNCALL	_deg_330,_rm_run
    95                           	FNCALL	_deg_330,_bm_run
    96                           	FNCALL	_deg_330,_mode_display
    97                           	FNCALL	_deg_30,_lm_run
    98                           	FNCALL	_deg_30,_bm_run
    99                           	FNCALL	_deg_30,_mode_display
   100                           	FNCALL	_deg_150,_rm_run
   101                           	FNCALL	_deg_150,_bm_run
   102                           	FNCALL	_deg_150,_mode_display
   103                           	FNCALL	_deg_210,_lm_run
   104                           	FNCALL	_deg_210,_bm_run
   105                           	FNCALL	_deg_210,_mode_display
   106                           	FNCALL	_mode_display,_lcd_clr
   107                           	FNCALL	_mode_display,_lcd_goto
   108                           	FNCALL	_mode_display,_send_string
   109                           	FNCALL	_mode_display,_delay
   110                           	FNCALL	_lcd_goto,_send_config
   111                           	FNCALL	_lcd_clr,_send_config
   112                           	FNCALL	_lcd_clr,_delay
   113                           	FNCALL	_send_config,_delay
   114                           	FNCALL	_send_string,_send_char
   115                           	FNCALL	_send_char,_delay
   116                           	FNROOT	_main
   117                           	global	_i
   118                           	global	_shift
   119                           	global	_CCP1CON
   120  0017                     _CCP1CON	set	0x17
   121                           	global	_CCP2CON
   122  001D                     _CCP2CON	set	0x1D
   123                           	global	_CCPR1L
   124  0015                     _CCPR1L	set	0x15
   125                           	global	_CCPR2L
   126  001B                     _CCPR2L	set	0x1B
   127                           	global	_PORTB
   128  0006                     _PORTB	set	0x6
   129                           	global	_PORTC
   130  0007                     _PORTC	set	0x7
   131                           	global	_PORTD
   132  0008                     _PORTD	set	0x8
   133                           	global	_T2CON
   134  0012                     _T2CON	set	0x12
   135                           	global	_RA0
   136  0028                     _RA0	set	0x28
   137                           	global	_RA1
   138  0029                     _RA1	set	0x29
   139                           	global	_RA2
   140  002A                     _RA2	set	0x2A
   141                           	global	_RA3
   142  002B                     _RA3	set	0x2B
   143                           	global	_RB3
   144  0033                     _RB3	set	0x33
   145                           	global	_RB4
   146  0034                     _RB4	set	0x34
   147                           	global	_RB6
   148  0036                     _RB6	set	0x36
   149                           	global	_RB7
   150  0037                     _RB7	set	0x37
   151                           	global	_RC0
   152  0038                     _RC0	set	0x38
   153                           	global	_RC3
   154  003B                     _RC3	set	0x3B
   155                           	global	_RC4
   156  003C                     _RC4	set	0x3C
   157                           	global	_RC5
   158  003D                     _RC5	set	0x3D
   159                           	global	_ADCON1
   160  009F                     _ADCON1	set	0x9F
   161                           	global	_CCP3CON
   162  0097                     _CCP3CON	set	0x97
   163                           	global	_CCPR3L
   164  0095                     _CCPR3L	set	0x95
   165                           	global	_PR2
   166  0092                     _PR2	set	0x92
   167                           	global	_TRISA
   168  0085                     _TRISA	set	0x85
   169                           	global	_TRISB
   170  0086                     _TRISB	set	0x86
   171                           	global	_TRISC
   172  0087                     _TRISC	set	0x87
   173                           	global	_TRISD
   174  0088                     _TRISD	set	0x88
   175                           psect	strings,class=STRING,delta=2
   176                           global __pstrings
   177  0003                     __pstrings:
   178                           ;	global	stringdir,stringtab,__stringbase
   179  0003                     stringtab:
   180                           ;	String table - string pointers are 1 byte each
   181  0003                     stringcode:stringdir:
      + 0003                     stringdir:	
   182  0003  3000               movlw high(stringdir)
   183  0004  008A               movwf pclath
   184  0005  0804               movf fsr,w
   185  0006  0A84               incf fsr
   186  0007  0782               	addwf pc
   187  0008                     __stringbase:
   188  0008  3400               	retlw	0
   189                           psect	strings
   190                           	
   191  0009                     STR_33:	
   192  0009  3443               	retlw	67	;'C'
   193  000A  3479               	retlw	121	;'y'
   194  000B  3474               	retlw	116	;'t'
   195  000C  3472               	retlw	114	;'r'
   196  000D  346F               	retlw	111	;'o'
   197  000E  346E               	retlw	110	;'n'
   198  000F  3420               	retlw	32	;' '
   199  0010  3446               	retlw	70	;'F'
   200  0011  346C               	retlw	108	;'l'
   201  0012  3465               	retlw	101	;'e'
   202  0013  3478               	retlw	120	;'x'
   203  0014  3469               	retlw	105	;'i'
   204  0015  3462               	retlw	98	;'b'
   205  0016  346F               	retlw	111	;'o'
   206  0017  3474               	retlw	116	;'t'
   207  0018  3400               	retlw	0
   208                           psect	strings
   209                           	
   210  0019                     STR_29:	
   211  0019  3441               	retlw	65	;'A'
   212  001A  346E               	retlw	110	;'n'
   213  001B  3474               	retlw	116	;'t'
   214  001C  3469               	retlw	105	;'i'
   215  001D  3463               	retlw	99	;'c'
   216  001E  346C               	retlw	108	;'l'
   217  001F  346F               	retlw	111	;'o'
   218  0020  3463               	retlw	99	;'c'
   219  0021  346B               	retlw	107	;'k'
   220  0022  3477               	retlw	119	;'w'
   221  0023  3469               	retlw	105	;'i'
   222  0024  3473               	retlw	115	;'s'
   223  0025  3465               	retlw	101	;'e'
   224  0026  3400               	retlw	0
   225                           psect	strings
   226                           	
   227  0027                     STR_34:	
   228  0027  3441               	retlw	65	;'A'
   229  0028  346C               	retlw	108	;'l'
   230  0029  3470               	retlw	112	;'p'
   231  002A  3468               	retlw	104	;'h'
   232  002B  3461               	retlw	97	;'a'
   233  002C  3420               	retlw	32	;' '
   234  002D  344D               	retlw	77	;'M'
   235  002E  346F               	retlw	111	;'o'
   236  002F  3464               	retlw	100	;'d'
   237  0030  3465               	retlw	101	;'e'
   238  0031  343F               	retlw	63	;'?'
   239  0032  3400               	retlw	0
   240                           psect	strings
   241                           	
   242  0033                     STR_36:	
   243  0033  3442               	retlw	66	;'B'
   244  0034  3465               	retlw	101	;'e'
   245  0035  3474               	retlw	116	;'t'
   246  0036  3461               	retlw	97	;'a'
   247  0037  3420               	retlw	32	;' '
   248  0038  344D               	retlw	77	;'M'
   249  0039  346F               	retlw	111	;'o'
   250  003A  3464               	retlw	100	;'d'
   251  003B  3465               	retlw	101	;'e'
   252  003C  343F               	retlw	63	;'?'
   253  003D  3400               	retlw	0
   254                           psect	strings
   255                           	
   256  003E                     STR_27:	
   257  003E  3443               	retlw	67	;'C'
   258  003F  346C               	retlw	108	;'l'
   259  0040  346F               	retlw	111	;'o'
   260  0041  3463               	retlw	99	;'c'
   261  0042  346B               	retlw	107	;'k'
   262  0043  3477               	retlw	119	;'w'
   263  0044  3469               	retlw	105	;'i'
   264  0045  3473               	retlw	115	;'s'
   265  0046  3465               	retlw	101	;'e'
   266  0047  3400               	retlw	0
   267                           psect	strings
   268                           	
   269  0048                     STR_4:	
   270  0048  3444               	retlw	68	;'D'
   271  0049  3465               	retlw	101	;'e'
   272  004A  3467               	retlw	103	;'g'
   273  004B  3472               	retlw	114	;'r'
   274  004C  3465               	retlw	101	;'e'
   275  004D  3465               	retlw	101	;'e'
   276  004E  3400               	retlw	0
   277                           psect	strings
   278                           	
   279  004F                     STR_31:	
   280  004F  3443               	retlw	67	;'C'
   281  0050  3479               	retlw	121	;'y'
   282  0051  3474               	retlw	116	;'t'
   283  0052  3472               	retlw	114	;'r'
   284  0053  346F               	retlw	111	;'o'
   285  0054  346E               	retlw	110	;'n'
   286  0055  3400               	retlw	0
   287                           psect	strings
   288                           	
   289  0056                     STR_2:	
   290  0056  3453               	retlw	83	;'S'
   291  0057  3474               	retlw	116	;'t'
   292  0058  346F               	retlw	111	;'o'
   293  0059  3470               	retlw	112	;'p'
   294  005A  3400               	retlw	0
   295                           psect	strings
   296                           	
   297  005B                     STR_23:	
   298  005B  3433               	retlw	51	;'3'
   299  005C  3430               	retlw	48	;'0'
   300  005D  3430               	retlw	48	;'0'
   301  005E  3400               	retlw	0
   302                           psect	strings
   303                           	
   304  005F                     STR_17:	
   305  005F  3432               	retlw	50	;'2'
   306  0060  3431               	retlw	49	;'1'
   307  0061  3430               	retlw	48	;'0'
   308  0062  3400               	retlw	0
   309                           psect	strings
   310                           	
   311  0063                     STR_11:	
   312  0063  3431               	retlw	49	;'1'
   313  0064  3432               	retlw	50	;'2'
   314  0065  3430               	retlw	48	;'0'
   315  0066  3400               	retlw	0
   316                           psect	strings
   317                           	
   318  0067                     STR_25:	
   319  0067  3433               	retlw	51	;'3'
   320  0068  3433               	retlw	51	;'3'
   321  0069  3430               	retlw	48	;'0'
   322  006A  3400               	retlw	0
   323                           psect	strings
   324                           	
   325  006B                     STR_19:	
   326  006B  3432               	retlw	50	;'2'
   327  006C  3434               	retlw	52	;'4'
   328  006D  3430               	retlw	48	;'0'
   329  006E  3400               	retlw	0
   330                           psect	strings
   331                           	
   332  006F                     STR_13:	
   333  006F  3431               	retlw	49	;'1'
   334  0070  3435               	retlw	53	;'5'
   335  0071  3430               	retlw	48	;'0'
   336  0072  3400               	retlw	0
   337                           psect	strings
   338                           	
   339  0073                     STR_21:	
   340  0073  3432               	retlw	50	;'2'
   341  0074  3437               	retlw	55	;'7'
   342  0075  3430               	retlw	48	;'0'
   343  0076  3400               	retlw	0
   344                           psect	strings
   345                           	
   346  0077                     STR_15:	
   347  0077  3431               	retlw	49	;'1'
   348  0078  3438               	retlw	56	;'8'
   349  0079  3430               	retlw	48	;'0'
   350  007A  3400               	retlw	0
   351                           psect	strings
   352                           	
   353  007B                     STR_7:	
   354  007B  3436               	retlw	54	;'6'
   355  007C  3430               	retlw	48	;'0'
   356  007D  3400               	retlw	0
   357                           psect	strings
   358                           	
   359  007E                     STR_9:	
   360  007E  3439               	retlw	57	;'9'
   361  007F  3430               	retlw	48	;'0'
   362  0080  3400               	retlw	0
   363                           psect	strings
   364  0009                     STR_35	equ	STR_33+0
   365  0010                     STR_1	equ	STR_33+7
   366  0010                     STR_32	equ	STR_33+7
   367  0048                     STR_6	equ	STR_4+0
   368  0048                     STR_8	equ	STR_4+0
   369  0048                     STR_10	equ	STR_4+0
   370  0048                     STR_12	equ	STR_4+0
   371  0048                     STR_14	equ	STR_4+0
   372  0048                     STR_16	equ	STR_4+0
   373  0048                     STR_18	equ	STR_4+0
   374  0048                     STR_20	equ	STR_4+0
   375  0048                     STR_22	equ	STR_4+0
   376  0048                     STR_24	equ	STR_4+0
   377  0048                     STR_26	equ	STR_4+0
   378  0068                     STR_5	equ	STR_25+1
   379  005D                     STR_3	equ	STR_23+2
   380  005E                     STR_28	equ	STR_23+3
   381  005E                     STR_30	equ	STR_23+3
   382                           	file	"C:\Users\HATAKE~1\AppData\Local\Temp\s2nvk."
   383                           	line	#
   384                           psect cinit,class=CODE,delta=2
   385                           global start_initialization
   386  026F                     start_initialization:
   387                           
   388                           psect	bssBANK0,class=BANK0,space=1
   389                           global __pbssBANK0
   390  0020                     __pbssBANK0:
   391  0020                     _i:
   392  0020                            ds      1
   393                           
   394  0021                     _shift:
   395  0021                            ds      1
   396                           
   397                           ; Clear objects allocated to BANK0
   398                           psect cinit,class=CODE,delta=2,merge=1
   399  026F  01A0               	clrf	((__pbssBANK0)+0)&07Fh
   400  0270  01A1               	clrf	((__pbssBANK0)+1)&07Fh
   401                           psect cinit,class=CODE,delta=2,merge=1
   402                           global end_of_initialization
   403                           
   404                           ;End of C runtime variable initialization code
   405                           
   406  0271                     end_of_initialization:
   407  0271  0183               clrf status
   408  0272  120A  118A  2E18   ljmp _main	;jump to C main() function
   409                           psect	cstackCOMMON,class=COMMON,space=1
   410                           global __pcstackCOMMON
   411  0070                     __pcstackCOMMON:
   412                           	global	?_send_config
   413  0070                     ?_send_config:	; 0 bytes @ 0x0
   414                           	global	?_delay
   415  0070                     ?_delay:	; 0 bytes @ 0x0
   416                           	global	?_alphamode
   417  0070                     ?_alphamode:	; 0 bytes @ 0x0
   418                           	global	?_betamode
   419  0070                     ?_betamode:	; 0 bytes @ 0x0
   420                           	global	?_shift_display
   421  0070                     ?_shift_display:	; 0 bytes @ 0x0
   422                           	global	?_deg_270
   423  0070                     ?_deg_270:	; 0 bytes @ 0x0
   424                           	global	?_deg_0
   425  0070                     ?_deg_0:	; 0 bytes @ 0x0
   426                           	global	?_deg_90
   427  0070                     ?_deg_90:	; 0 bytes @ 0x0
   428                           	global	?_deg_180
   429  0070                     ?_deg_180:	; 0 bytes @ 0x0
   430                           	global	?_clockwise
   431  0070                     ?_clockwise:	; 0 bytes @ 0x0
   432                           	global	?_m_stop
   433  0070                     ?_m_stop:	; 0 bytes @ 0x0
   434                           	global	?_deg_330
   435  0070                     ?_deg_330:	; 0 bytes @ 0x0
   436                           	global	?_deg_30
   437  0070                     ?_deg_30:	; 0 bytes @ 0x0
   438                           	global	?_deg_150
   439  0070                     ?_deg_150:	; 0 bytes @ 0x0
   440                           	global	?_deg_210
   441  0070                     ?_deg_210:	; 0 bytes @ 0x0
   442                           	global	?_main
   443  0070                     ?_main:	; 0 bytes @ 0x0
   444                           	global	?_lm_run
   445  0070                     ?_lm_run:	; 0 bytes @ 0x0
   446                           	global	??_lm_run
   447  0070                     ??_lm_run:	; 0 bytes @ 0x0
   448                           	global	?_rm_run
   449  0070                     ?_rm_run:	; 0 bytes @ 0x0
   450                           	global	??_rm_run
   451  0070                     ??_rm_run:	; 0 bytes @ 0x0
   452                           	global	?_bm_run
   453  0070                     ?_bm_run:	; 0 bytes @ 0x0
   454                           	global	??_bm_run
   455  0070                     ??_bm_run:	; 0 bytes @ 0x0
   456                           	global	?_send_char
   457  0070                     ?_send_char:	; 0 bytes @ 0x0
   458                           	global	?_lcd_goto
   459  0070                     ?_lcd_goto:	; 0 bytes @ 0x0
   460                           	global	?_lcd_clr
   461  0070                     ?_lcd_clr:	; 0 bytes @ 0x0
   462                           	global	?_send_string
   463  0070                     ?_send_string:	; 0 bytes @ 0x0
   464                           	global	lm_run@dir
   465  0070                     lm_run@dir:	; 1 bytes @ 0x0
   466                           	global	rm_run@dir
   467  0070                     rm_run@dir:	; 1 bytes @ 0x0
   468                           	global	bm_run@dir
   469  0070                     bm_run@dir:	; 1 bytes @ 0x0
   470                           	global	delay@data
   471  0070                     delay@data:	; 4 bytes @ 0x0
   472  0070                     	ds	4
   473                           	global	??_delay
   474  0074                     ??_delay:	; 0 bytes @ 0x4
   475  0074                     	ds	4
   476                           	global	??_send_config
   477  0078                     ??_send_config:	; 0 bytes @ 0x8
   478                           	global	??_send_char
   479  0078                     ??_send_char:	; 0 bytes @ 0x8
   480                           	global	send_config@data
   481  0078                     send_config@data:	; 1 bytes @ 0x8
   482                           	global	send_char@data
   483  0078                     send_char@data:	; 1 bytes @ 0x8
   484  0078                     	ds	1
   485                           	global	??_lcd_goto
   486  0079                     ??_lcd_goto:	; 0 bytes @ 0x9
   487                           	global	??_lcd_clr
   488  0079                     ??_lcd_clr:	; 0 bytes @ 0x9
   489                           	global	??_send_string
   490  0079                     ??_send_string:	; 0 bytes @ 0x9
   491  0079                     	ds	1
   492                           	global	lcd_goto@data
   493  007A                     lcd_goto@data:	; 1 bytes @ 0xA
   494                           	global	send_string@s
   495  007A                     send_string@s:	; 1 bytes @ 0xA
   496  007A                     	ds	1
   497                           	global	??_shift_display
   498  007B                     ??_shift_display:	; 0 bytes @ 0xB
   499                           	global	?_mode_display
   500  007B                     ?_mode_display:	; 0 bytes @ 0xB
   501                           	global	mode_display@y
   502  007B                     mode_display@y:	; 1 bytes @ 0xB
   503  007B                     	ds	1
   504                           	global	??_mode_display
   505  007C                     ??_mode_display:	; 0 bytes @ 0xC
   506                           	global	mode_display@x
   507  007C                     mode_display@x:	; 1 bytes @ 0xC
   508  007C                     	ds	1
   509                           	global	??_deg_270
   510  007D                     ??_deg_270:	; 0 bytes @ 0xD
   511                           	global	??_deg_0
   512  007D                     ??_deg_0:	; 0 bytes @ 0xD
   513                           	global	??_deg_90
   514  007D                     ??_deg_90:	; 0 bytes @ 0xD
   515                           	global	??_deg_180
   516  007D                     ??_deg_180:	; 0 bytes @ 0xD
   517                           	global	??_clockwise
   518  007D                     ??_clockwise:	; 0 bytes @ 0xD
   519                           	global	??_m_stop
   520  007D                     ??_m_stop:	; 0 bytes @ 0xD
   521                           	global	??_deg_330
   522  007D                     ??_deg_330:	; 0 bytes @ 0xD
   523                           	global	??_deg_30
   524  007D                     ??_deg_30:	; 0 bytes @ 0xD
   525                           	global	??_deg_150
   526  007D                     ??_deg_150:	; 0 bytes @ 0xD
   527                           	global	??_deg_210
   528  007D                     ??_deg_210:	; 0 bytes @ 0xD
   529  007D                     	ds	1
   530                           	global	??_alphamode
   531  007E                     ??_alphamode:	; 0 bytes @ 0xE
   532                           	global	??_betamode
   533  007E                     ??_betamode:	; 0 bytes @ 0xE
   534                           psect	cstackBANK0,class=BANK0,space=1
   535                           global __pcstackBANK0
   536  0022                     __pcstackBANK0:
   537                           	global	??_main
   538  0022                     ??_main:	; 0 bytes @ 0x0
   539  0022                     	ds	1
   540                           ;!
   541                           ;!Data Sizes:
   542                           ;!    Strings     120
   543                           ;!    Constant    0
   544                           ;!    Data        0
   545                           ;!    BSS         2
   546                           ;!    Persistent  0
   547                           ;!    Stack       0
   548                           ;!
   549                           ;!Auto Spaces:
   550                           ;!    Space          Size  Autos    Used
   551                           ;!    COMMON           14     14      14
   552                           ;!    BANK0            80      1       3
   553                           ;!    BANK1            80      0       0
   554                           ;!    BANK3            96      0       0
   555                           ;!    BANK2            96      0       0
   556                           
   557                           ;!
   558                           ;!Pointer List with Targets:
   559                           ;!
   560                           ;!    mode_display@y	PTR const unsigned char  size(1) Largest target is 7
   561                           ;!		 -> STR_30(CODE[1]), STR_28(CODE[1]), STR_26(CODE[7]), STR_24(CODE[7]), 
   562                           ;!		 -> STR_22(CODE[7]), STR_20(CODE[7]), STR_18(CODE[7]), STR_16(CODE[7]), 
   563                           ;!		 -> STR_14(CODE[7]), STR_12(CODE[7]), STR_10(CODE[7]), STR_8(CODE[7]), 
   564                           ;!		 -> STR_6(CODE[7]), STR_4(CODE[7]), STR_2(CODE[5]), 
   565                           ;!
   566                           ;!    mode_display@x	PTR const unsigned char  size(1) Largest target is 14
   567                           ;!		 -> STR_29(CODE[14]), STR_27(CODE[10]), STR_25(CODE[4]), STR_23(CODE[4]), 
   568                           ;!		 -> STR_21(CODE[4]), STR_19(CODE[4]), STR_17(CODE[4]), STR_15(CODE[4]), 
   569                           ;!		 -> STR_13(CODE[4]), STR_11(CODE[4]), STR_9(CODE[3]), STR_7(CODE[3]), 
   570                           ;!		 -> STR_5(CODE[3]), STR_3(CODE[2]), STR_1(CODE[9]), 
   571                           ;!
   572                           ;!    send_string@s	PTR const unsigned char  size(1) Largest target is 16
   573                           ;!		 -> STR_36(CODE[11]), STR_35(CODE[16]), STR_34(CODE[12]), STR_33(CODE[16]), 
   574                           ;!		 -> STR_32(CODE[9]), STR_31(CODE[7]), STR_30(CODE[1]), STR_29(CODE[14]), 
   575                           ;!		 -> STR_28(CODE[1]), STR_27(CODE[10]), STR_26(CODE[7]), STR_25(CODE[4]), 
   576                           ;!		 -> STR_24(CODE[7]), STR_23(CODE[4]), STR_22(CODE[7]), STR_21(CODE[4]), 
   577                           ;!		 -> STR_20(CODE[7]), STR_19(CODE[4]), STR_18(CODE[7]), STR_17(CODE[4]), 
   578                           ;!		 -> STR_16(CODE[7]), STR_15(CODE[4]), STR_14(CODE[7]), STR_13(CODE[4]), 
   579                           ;!		 -> STR_12(CODE[7]), STR_11(CODE[4]), STR_10(CODE[7]), STR_9(CODE[3]), 
   580                           ;!		 -> STR_8(CODE[7]), STR_7(CODE[3]), STR_6(CODE[7]), STR_5(CODE[3]), 
   581                           ;!		 -> STR_4(CODE[7]), STR_3(CODE[2]), STR_2(CODE[5]), STR_1(CODE[9]), 
   582                           ;!
   583                           
   584                           
   585                           ;!
   586                           ;!Critical Paths under _main in COMMON
   587                           ;!
   588                           ;!    _alphamode->_deg_270
   589                           ;!    _alphamode->_deg_0
   590                           ;!    _alphamode->_deg_90
   591                           ;!    _alphamode->_deg_180
   592                           ;!    _alphamode->_clockwise
   593                           ;!    _alphamode->_m_stop
   594                           ;!    _betamode->_deg_330
   595                           ;!    _betamode->_deg_0
   596                           ;!    _betamode->_deg_30
   597                           ;!    _betamode->_deg_150
   598                           ;!    _betamode->_deg_180
   599                           ;!    _betamode->_deg_210
   600                           ;!    _betamode->_m_stop
   601                           ;!    _shift_display->_lcd_goto
   602                           ;!    _shift_display->_send_string
   603                           ;!    _deg_270->_mode_display
   604                           ;!    _deg_0->_mode_display
   605                           ;!    _deg_90->_mode_display
   606                           ;!    _deg_180->_mode_display
   607                           ;!    _clockwise->_mode_display
   608                           ;!    _m_stop->_mode_display
   609                           ;!    _deg_330->_mode_display
   610                           ;!    _deg_30->_mode_display
   611                           ;!    _deg_150->_mode_display
   612                           ;!    _deg_210->_mode_display
   613                           ;!    _mode_display->_lcd_goto
   614                           ;!    _mode_display->_send_string
   615                           ;!    _lcd_goto->_send_config
   616                           ;!    _lcd_clr->_send_config
   617                           ;!    _send_config->_delay
   618                           ;!    _send_string->_send_char
   619                           ;!    _send_char->_delay
   620                           ;!
   621                           ;!Critical Paths under _main in BANK0
   622                           ;!
   623                           ;!    None.
   624                           ;!
   625                           ;!Critical Paths under _main in BANK1
   626                           ;!
   627                           ;!    None.
   628                           ;!
   629                           ;!Critical Paths under _main in BANK3
   630                           ;!
   631                           ;!    None.
   632                           ;!
   633                           ;!Critical Paths under _main in BANK2
   634                           ;!
   635                           ;!    None.
   636                           
   637 ;;
   638 ;;Main: autosize = 0, tempsize = 1, incstack = 0, save=0
   639 ;;
   640                           
   641                           ;!
   642                           ;!Call Graph Tables:
   643                           ;!
   644                           ;! ---------------------------------------------------------------------------------
   645                           ;! (Depth) Function   	        Calls       Base Space   Used Autos Params    Refs
   646                           ;! ---------------------------------------------------------------------------------
   647                           ;! (0) _main                                                 1     1      0    8199
   648                           ;!                                              0 BANK0      1     1      0
   649                           ;!                        _send_config
   650                           ;!                              _delay
   651                           ;!                          _alphamode
   652                           ;!                           _betamode
   653                           ;!                      _shift_display
   654                           ;! ---------------------------------------------------------------------------------
   655                           ;! (1) _alphamode                                            0     0      0    3563
   656                           ;!                            _deg_270
   657                           ;!                              _delay
   658                           ;!                              _deg_0
   659                           ;!                             _deg_90
   660                           ;!                            _deg_180
   661                           ;!                          _clockwise
   662                           ;!                             _m_stop
   663                           ;! ---------------------------------------------------------------------------------
   664                           ;! (1) _betamode                                             0     0      0    4010
   665                           ;!                            _deg_330
   666                           ;!                              _delay
   667                           ;!                              _deg_0
   668                           ;!                             _deg_30
   669                           ;!                            _deg_150
   670                           ;!                            _deg_180
   671                           ;!                            _deg_210
   672                           ;!                             _m_stop
   673                           ;! ---------------------------------------------------------------------------------
   674                           ;! (1) _shift_display                                        1     1      0     514
   675                           ;!                                             11 COMMON     1     1      0
   676                           ;!                            _lcd_clr
   677                           ;!                           _lcd_goto
   678                           ;!                        _send_string
   679                           ;!                        _send_config
   680                           ;!                              _delay
   681                           ;! ---------------------------------------------------------------------------------
   682                           ;! (2) _deg_270                                              1     1      0     623
   683                           ;!                                             13 COMMON     1     1      0
   684                           ;!                             _lm_run
   685                           ;!                             _rm_run
   686                           ;!                             _bm_run
   687                           ;!                       _mode_display
   688                           ;! ---------------------------------------------------------------------------------
   689                           ;! (2) _deg_0                                                1     1      0     579
   690                           ;!                                             13 COMMON     1     1      0
   691                           ;!                             _lm_run
   692                           ;!                             _rm_run
   693                           ;!                       _mode_display
   694                           ;! ---------------------------------------------------------------------------------
   695                           ;! (2) _deg_90                                               1     1      0     623
   696                           ;!                                             13 COMMON     1     1      0
   697                           ;!                             _lm_run
   698                           ;!                             _rm_run
   699                           ;!                             _bm_run
   700                           ;!                       _mode_display
   701                           ;! ---------------------------------------------------------------------------------
   702                           ;! (2) _deg_180                                              1     1      0     579
   703                           ;!                                             13 COMMON     1     1      0
   704                           ;!                             _lm_run
   705                           ;!                             _rm_run
   706                           ;!                       _mode_display
   707                           ;! ---------------------------------------------------------------------------------
   708                           ;! (2) _clockwise                                            1     1      0     623
   709                           ;!                                             13 COMMON     1     1      0
   710                           ;!                             _lm_run
   711                           ;!                             _rm_run
   712                           ;!                             _bm_run
   713                           ;!                       _mode_display
   714                           ;! ---------------------------------------------------------------------------------
   715                           ;! (2) _m_stop                                               1     1      0     491
   716                           ;!                                             13 COMMON     1     1      0
   717                           ;!                       _mode_display
   718                           ;! ---------------------------------------------------------------------------------
   719                           ;! (2) _deg_330                                              1     1      0     579
   720                           ;!                                             13 COMMON     1     1      0
   721                           ;!                             _rm_run
   722                           ;!                             _bm_run
   723                           ;!                       _mode_display
   724                           ;! ---------------------------------------------------------------------------------
   725                           ;! (2) _deg_30                                               1     1      0     579
   726                           ;!                                             13 COMMON     1     1      0
   727                           ;!                             _lm_run
   728                           ;!                             _bm_run
   729                           ;!                       _mode_display
   730                           ;! ---------------------------------------------------------------------------------
   731                           ;! (2) _deg_150                                              1     1      0     579
   732                           ;!                                             13 COMMON     1     1      0
   733                           ;!                             _rm_run
   734                           ;!                             _bm_run
   735                           ;!                       _mode_display
   736                           ;! ---------------------------------------------------------------------------------
   737                           ;! (2) _deg_210                                              1     1      0     579
   738                           ;!                                             13 COMMON     1     1      0
   739                           ;!                             _lm_run
   740                           ;!                             _bm_run
   741                           ;!                       _mode_display
   742                           ;! ---------------------------------------------------------------------------------
   743                           ;! (3) _mode_display                                         2     1      1     491
   744                           ;!                                             11 COMMON     2     1      1
   745                           ;!                            _lcd_clr
   746                           ;!                           _lcd_goto
   747                           ;!                        _send_string
   748                           ;!                              _delay
   749                           ;! ---------------------------------------------------------------------------------
   750                           ;! (3) _lm_run                                               1     1      0      44
   751                           ;!                                              0 COMMON     1     1      0
   752                           ;! ---------------------------------------------------------------------------------
   753                           ;! (3) _rm_run                                               1     1      0      44
   754                           ;!                                              0 COMMON     1     1      0
   755                           ;! ---------------------------------------------------------------------------------
   756                           ;! (3) _bm_run                                               1     1      0      44
   757                           ;!                                              0 COMMON     1     1      0
   758                           ;! ---------------------------------------------------------------------------------
   759                           ;! (2) _lcd_goto                                             2     2      0     156
   760                           ;!                                              9 COMMON     2     2      0
   761                           ;!                        _send_config
   762                           ;! ---------------------------------------------------------------------------------
   763                           ;! (2) _lcd_clr                                              0     0      0     112
   764                           ;!                        _send_config
   765                           ;!                              _delay
   766                           ;! ---------------------------------------------------------------------------------
   767                           ;! (2) _send_config                                          1     1      0      67
   768                           ;!                                              8 COMMON     1     1      0
   769                           ;!                              _delay
   770                           ;! ---------------------------------------------------------------------------------
   771                           ;! (2) _send_string                                          2     2      0     134
   772                           ;!                                              9 COMMON     2     2      0
   773                           ;!                          _send_char
   774                           ;! ---------------------------------------------------------------------------------
   775                           ;! (3) _send_char                                            1     1      0      67
   776                           ;!                                              8 COMMON     1     1      0
   777                           ;!                              _delay
   778                           ;! ---------------------------------------------------------------------------------
   779                           ;! (2) _delay                                                8     4      4      45
   780                           ;!                                              0 COMMON     8     4      4
   781                           ;! ---------------------------------------------------------------------------------
   782                           ;! Estimated maximum stack depth 3
   783                           ;! ---------------------------------------------------------------------------------
   784                           ;!
   785                           ;! Call Graph Graphs:
   786                           ;!
   787                           ;! _main (ROOT)
   788                           ;!   _send_config
   789                           ;!     _delay
   790                           ;!   _delay
   791                           ;!   _alphamode
   792                           ;!     _deg_270
   793                           ;!       _lm_run
   794                           ;!       _rm_run
   795                           ;!       _bm_run
   796                           ;!       _mode_display
   797                           ;!         _lcd_clr
   798                           ;!           _send_config
   799                           ;!             _delay
   800                           ;!           _delay
   801                           ;!         _lcd_goto
   802                           ;!           _send_config
   803                           ;!             _delay
   804                           ;!         _send_string
   805                           ;!           _send_char
   806                           ;!             _delay
   807                           ;!         _delay
   808                           ;!     _delay
   809                           ;!     _deg_0
   810                           ;!       _lm_run
   811                           ;!       _rm_run
   812                           ;!       _mode_display
   813                           ;!         _lcd_clr
   814                           ;!           _send_config
   815                           ;!             _delay
   816                           ;!           _delay
   817                           ;!         _lcd_goto
   818                           ;!           _send_config
   819                           ;!             _delay
   820                           ;!         _send_string
   821                           ;!           _send_char
   822                           ;!             _delay
   823                           ;!         _delay
   824                           ;!     _deg_90
   825                           ;!       _lm_run
   826                           ;!       _rm_run
   827                           ;!       _bm_run
   828                           ;!       _mode_display
   829                           ;!         _lcd_clr
   830                           ;!           _send_config
   831                           ;!             _delay
   832                           ;!           _delay
   833                           ;!         _lcd_goto
   834                           ;!           _send_config
   835                           ;!             _delay
   836                           ;!         _send_string
   837                           ;!           _send_char
   838                           ;!             _delay
   839                           ;!         _delay
   840                           ;!     _deg_180
   841                           ;!       _lm_run
   842                           ;!       _rm_run
   843                           ;!       _mode_display
   844                           ;!         _lcd_clr
   845                           ;!           _send_config
   846                           ;!             _delay
   847                           ;!           _delay
   848                           ;!         _lcd_goto
   849                           ;!           _send_config
   850                           ;!             _delay
   851                           ;!         _send_string
   852                           ;!           _send_char
   853                           ;!             _delay
   854                           ;!         _delay
   855                           ;!     _clockwise
   856                           ;!       _lm_run
   857                           ;!       _rm_run
   858                           ;!       _bm_run
   859                           ;!       _mode_display
   860                           ;!         _lcd_clr
   861                           ;!           _send_config
   862                           ;!             _delay
   863                           ;!           _delay
   864                           ;!         _lcd_goto
   865                           ;!           _send_config
   866                           ;!             _delay
   867                           ;!         _send_string
   868                           ;!           _send_char
   869                           ;!             _delay
   870                           ;!         _delay
   871                           ;!     _m_stop
   872                           ;!       _mode_display
   873                           ;!         _lcd_clr
   874                           ;!           _send_config
   875                           ;!             _delay
   876                           ;!           _delay
   877                           ;!         _lcd_goto
   878                           ;!           _send_config
   879                           ;!             _delay
   880                           ;!         _send_string
   881                           ;!           _send_char
   882                           ;!             _delay
   883                           ;!         _delay
   884                           ;!   _betamode
   885                           ;!     _deg_330
   886                           ;!       _rm_run
   887                           ;!       _bm_run
   888                           ;!       _mode_display
   889                           ;!         _lcd_clr
   890                           ;!           _send_config
   891                           ;!             _delay
   892                           ;!           _delay
   893                           ;!         _lcd_goto
   894                           ;!           _send_config
   895                           ;!             _delay
   896                           ;!         _send_string
   897                           ;!           _send_char
   898                           ;!             _delay
   899                           ;!         _delay
   900                           ;!     _delay
   901                           ;!     _deg_0
   902                           ;!       _lm_run
   903                           ;!       _rm_run
   904                           ;!       _mode_display
   905                           ;!         _lcd_clr
   906                           ;!           _send_config
   907                           ;!             _delay
   908                           ;!           _delay
   909                           ;!         _lcd_goto
   910                           ;!           _send_config
   911                           ;!             _delay
   912                           ;!         _send_string
   913                           ;!           _send_char
   914                           ;!             _delay
   915                           ;!         _delay
   916                           ;!     _deg_30
   917                           ;!       _lm_run
   918                           ;!       _bm_run
   919                           ;!       _mode_display
   920                           ;!         _lcd_clr
   921                           ;!           _send_config
   922                           ;!             _delay
   923                           ;!           _delay
   924                           ;!         _lcd_goto
   925                           ;!           _send_config
   926                           ;!             _delay
   927                           ;!         _send_string
   928                           ;!           _send_char
   929                           ;!             _delay
   930                           ;!         _delay
   931                           ;!     _deg_150
   932                           ;!       _rm_run
   933                           ;!       _bm_run
   934                           ;!       _mode_display
   935                           ;!         _lcd_clr
   936                           ;!           _send_config
   937                           ;!             _delay
   938                           ;!           _delay
   939                           ;!         _lcd_goto
   940                           ;!           _send_config
   941                           ;!             _delay
   942                           ;!         _send_string
   943                           ;!           _send_char
   944                           ;!             _delay
   945                           ;!         _delay
   946                           ;!     _deg_180
   947                           ;!       _lm_run
   948                           ;!       _rm_run
   949                           ;!       _mode_display
   950                           ;!         _lcd_clr
   951                           ;!           _send_config
   952                           ;!             _delay
   953                           ;!           _delay
   954                           ;!         _lcd_goto
   955                           ;!           _send_config
   956                           ;!             _delay
   957                           ;!         _send_string
   958                           ;!           _send_char
   959                           ;!             _delay
   960                           ;!         _delay
   961                           ;!     _deg_210
   962                           ;!       _lm_run
   963                           ;!       _bm_run
   964                           ;!       _mode_display
   965                           ;!         _lcd_clr
   966                           ;!           _send_config
   967                           ;!             _delay
   968                           ;!           _delay
   969                           ;!         _lcd_goto
   970                           ;!           _send_config
   971                           ;!             _delay
   972                           ;!         _send_string
   973                           ;!           _send_char
   974                           ;!             _delay
   975                           ;!         _delay
   976                           ;!     _m_stop
   977                           ;!       _mode_display
   978                           ;!         _lcd_clr
   979                           ;!           _send_config
   980                           ;!             _delay
   981                           ;!           _delay
   982                           ;!         _lcd_goto
   983                           ;!           _send_config
   984                           ;!             _delay
   985                           ;!         _send_string
   986                           ;!           _send_char
   987                           ;!             _delay
   988                           ;!         _delay
   989                           ;!   _shift_display
   990                           ;!     _lcd_clr
   991                           ;!       _send_config
   992                           ;!         _delay
   993                           ;!       _delay
   994                           ;!     _lcd_goto
   995                           ;!       _send_config
   996                           ;!         _delay
   997                           ;!     _send_string
   998                           ;!       _send_char
   999                           ;!         _delay
  1000                           ;!     _send_config
  1001                           ;!       _delay
  1002                           ;!     _delay
  1003                           ;!
  1004                           
  1005                           ;! Address spaces:
  1006                           
  1007                           ;!Name               Size   Autos  Total    Cost      Usage
  1008                           ;!BITCOMMON            E      0       0       0        0.0%
  1009                           ;!NULL                 0      0       0       0        0.0%
  1010                           ;!CODE                 0      0       0       0        0.0%
  1011                           ;!COMMON               E      E       E       1      100.0%
  1012                           ;!BITSFR0              0      0       0       1        0.0%
  1013                           ;!SFR0                 0      0       0       1        0.0%
  1014                           ;!BITSFR1              0      0       0       2        0.0%
  1015                           ;!SFR1                 0      0       0       2        0.0%
  1016                           ;!STACK                0      0       6       2        0.0%
  1017                           ;!ABS                  0      0      11       3        0.0%
  1018                           ;!BITBANK0            50      0       0       4        0.0%
  1019                           ;!BITSFR3              0      0       0       4        0.0%
  1020                           ;!SFR3                 0      0       0       4        0.0%
  1021                           ;!BANK0               50      1       3       5        3.8%
  1022                           ;!BITSFR2              0      0       0       5        0.0%
  1023                           ;!SFR2                 0      0       0       5        0.0%
  1024                           ;!DATA                 0      0      17       6        0.0%
  1025                           ;!BITBANK1            50      0       0       7        0.0%
  1026                           ;!BANK1               50      0       0       8        0.0%
  1027                           ;!BITBANK3            60      0       0       9        0.0%
  1028                           ;!BANK3               60      0       0      10        0.0%
  1029                           ;!BITBANK2            60      0       0      11        0.0%
  1030                           ;!BANK2               60      0       0      12        0.0%
  1031                           
  1032                           	global	_main
  1033                           
  1034 ;; *************** function _main *****************
  1035 ;; Defined at:
  1036 ;;		line 77 in file "PR19.c"
  1037 ;; Parameters:    Size  Location     Type
  1038 ;;		None
  1039 ;; Auto vars:     Size  Location     Type
  1040 ;;		None
  1041 ;; Return value:  Size  Location     Type
  1042 ;;		None               void
  1043 ;; Registers used:
  1044 ;;		wreg, fsr0l, fsr0h, status,2, status,0, pclath, cstack
  1045 ;; Tracked objects:
  1046 ;;		On entry : 17F/0
  1047 ;;		On exit  : 0/0
  1048 ;;		Unchanged: 0/0
  1049 ;; Data sizes:     COMMON   BANK0   BANK1   BANK3   BANK2
  1050 ;;      Params:         0       0       0       0       0
  1051 ;;      Locals:         0       0       0       0       0
  1052 ;;      Temps:          0       1       0       0       0
  1053 ;;      Totals:         0       1       0       0       0
  1054 ;;Total ram usage:        1 bytes
  1055 ;; Hardware stack levels required when called:    6
  1056 ;; This function calls:
  1057 ;;		_send_config
  1058 ;;		_delay
  1059 ;;		_alphamode
  1060 ;;		_betamode
  1061 ;;		_shift_display
  1062 ;; This function is called by:
  1063 ;;		Startup code after reset
  1064 ;; This function uses a non-reentrant model
  1065 ;;
  1066                           psect	maintext,global,class=CODE,delta=2,split=1
  1067                           global __pmaintext
  1068  0618                     __pmaintext:
  1069                           psect	maintext
  1070                           	file	"PR19.c"
  1071                           	line	77
  1072                           	global	__size_of_main
  1073  00B0                     	__size_of_main	equ	__end_of_main-_main
  1074                           	
  1075  0618                     _main:	
  1076                           	opt	stack 2
  1077                           ; Regs used in _main: [wreg-fsr0h+status,2+status,0+pclath+cstack]
  1078                           	line	79
  1079                           	
  1080  0618                     l1345:	
  1081                           ;PR19.c: 79: ADCON1 = 0b00001111;
  1082  0618  300F               	movlw	(0Fh)
  1083  0619  1683               	bsf	status, 5	;RP0=1, select bank1
  1084  061A  1303               	bcf	status, 6	;RP1=0, select bank1
  1085  061B  009F               	movwf	(159)^080h	;volatile
  1086                           	line	82
  1087                           ;PR19.c: 82: TRISA = 0b00000011;
  1088  061C  3003               	movlw	(03h)
  1089  061D  0085               	movwf	(133)^080h	;volatile
  1090                           	line	83
  1091                           	
  1092  061E                     l1347:	
  1093                           ;PR19.c: 83: TRISB = 0b00000000;
  1094  061E  0186               	clrf	(134)^080h	;volatile
  1095                           	line	84
  1096                           	
  1097  061F                     l1349:	
  1098                           ;PR19.c: 84: TRISC = 0b00000000;
  1099  061F  0187               	clrf	(135)^080h	;volatile
  1100                           	line	85
  1101                           	
  1102  0620                     l1351:	
  1103                           ;PR19.c: 85: TRISD = 0b00000000;
  1104  0620  0188               	clrf	(136)^080h	;volatile
  1105                           	line	86
  1106                           	
  1107  0621                     l1353:	
  1108                           ;PR19.c: 86: PORTB = 0x00;
  1109  0621  1283               	bcf	status, 5	;RP0=0, select bank0
  1110  0622  1303               	bcf	status, 6	;RP1=0, select bank0
  1111  0623  0186               	clrf	(6)	;volatile
  1112                           	line	87
  1113                           	
  1114  0624                     l1355:	
  1115                           ;PR19.c: 87: PORTC = 0x00;
  1116  0624  0187               	clrf	(7)	;volatile
  1117                           	line	88
  1118                           	
  1119  0625                     l1357:	
  1120                           ;PR19.c: 88: PORTD = 0x00;
  1121  0625  0188               	clrf	(8)	;volatile
  1122                           	line	91
  1123                           	
  1124  0626                     l1359:	
  1125                           ;PR19.c: 91: send_config(0b00000001);
  1126  0626  3001               	movlw	(01h)
  1127  0627  120A  118A  23E1   	fcall	_send_config
              120A  118A         
  1128                           	line	92
  1129                           	
  1130  062C                     l1361:	
  1131                           ;PR19.c: 92: send_config(0b00000010);
  1132  062C  3002               	movlw	(02h)
  1133  062D  120A  118A  23E1   	fcall	_send_config
              120A  118A         
  1134                           	line	93
  1135                           	
  1136  0632                     l1363:	
  1137                           ;PR19.c: 93: send_config(0b00000110);
  1138  0632  3006               	movlw	(06h)
  1139  0633  120A  118A  23E1   	fcall	_send_config
              120A  118A         
  1140                           	line	94
  1141                           	
  1142  0638                     l1365:	
  1143                           ;PR19.c: 94: send_config(0b00001100);
  1144  0638  300C               	movlw	(0Ch)
  1145  0639  120A  118A  23E1   	fcall	_send_config
              120A  118A         
  1146                           	line	95
  1147                           	
  1148  063E                     l1367:	
  1149                           ;PR19.c: 95: send_config(0b00111000);
  1150  063E  3038               	movlw	(038h)
  1151  063F  120A  118A  23E1   	fcall	_send_config
              120A  118A         
  1152                           	line	96
  1153                           	
  1154  0644                     l1369:	
  1155                           ;PR19.c: 96: RA2=1;
  1156  0644  1283               	bcf	status, 5	;RP0=0, select bank0
  1157  0645  1303               	bcf	status, 6	;RP1=0, select bank0
  1158  0646  1505               	bsf	(42/8),(42)&7	;volatile
  1159                           	line	99
  1160                           	
  1161  0647                     l1371:	
  1162                           ;PR19.c: 99: PR2=255;
  1163  0647  30FF               	movlw	(0FFh)
  1164  0648  1683               	bsf	status, 5	;RP0=1, select bank1
  1165  0649  1303               	bcf	status, 6	;RP1=0, select bank1
  1166  064A  0092               	movwf	(146)^080h	;volatile
  1167                           	line	100
  1168                           	
  1169  064B                     l1373:	
  1170                           ;PR19.c: 100: CCP1CON = 0b00001100;
  1171  064B  300C               	movlw	(0Ch)
  1172  064C  1283               	bcf	status, 5	;RP0=0, select bank0
  1173  064D  1303               	bcf	status, 6	;RP1=0, select bank0
  1174  064E  0097               	movwf	(23)	;volatile
  1175                           	line	101
  1176                           	
  1177  064F                     l1375:	
  1178                           ;PR19.c: 101: CCP2CON = 0b00001100;
  1179  064F  300C               	movlw	(0Ch)
  1180  0650  009D               	movwf	(29)	;volatile
  1181                           	line	102
  1182                           	
  1183  0651                     l1377:	
  1184                           ;PR19.c: 102: CCP3CON = 0b00001100;
  1185  0651  300C               	movlw	(0Ch)
  1186  0652  1683               	bsf	status, 5	;RP0=1, select bank1
  1187  0653  1303               	bcf	status, 6	;RP1=0, select bank1
  1188  0654  0097               	movwf	(151)^080h	;volatile
  1189                           	line	103
  1190                           	
  1191  0655                     l1379:	
  1192                           ;PR19.c: 103: T2CON = 0b00000100;
  1193  0655  3004               	movlw	(04h)
  1194  0656  1283               	bcf	status, 5	;RP0=0, select bank0
  1195  0657  1303               	bcf	status, 6	;RP1=0, select bank0
  1196  0658  0092               	movwf	(18)	;volatile
  1197                           	line	104
  1198                           	
  1199  0659                     l1381:	
  1200                           ;PR19.c: 104: CCPR1L = 0;
  1201  0659  0195               	clrf	(21)	;volatile
  1202                           	line	105
  1203                           	
  1204  065A                     l1383:	
  1205                           ;PR19.c: 105: CCPR2L = 0;
  1206  065A  019B               	clrf	(27)	;volatile
  1207                           	line	106
  1208                           	
  1209  065B                     l1385:	
  1210                           ;PR19.c: 106: CCPR3L = 0;
  1211  065B  1683               	bsf	status, 5	;RP0=1, select bank1
  1212  065C  1303               	bcf	status, 6	;RP1=0, select bank1
  1213  065D  0195               	clrf	(149)^080h	;volatile
  1214  065E  2E5F               	goto	l1387
  1215                           	line	109
  1216                           ;PR19.c: 109: while(1)
  1217                           	
  1218  065F                     l95:	
  1219                           	line	111
  1220                           	
  1221  065F                     l1387:	
  1222                           ;PR19.c: 110: {
  1223                           ;PR19.c: 111: if(RA0 == 0)
  1224  065F  1283               	bcf	status, 5	;RP0=0, select bank0
  1225  0660  1303               	bcf	status, 6	;RP1=0, select bank0
  1226  0661  1805               	btfsc	(40/8),(40)&7	;volatile
  1227  0662  2E64               	goto	u721
  1228  0663  2E65               	goto	u720
  1229  0664                     u721:
  1230  0664  2E88               	goto	l96
  1231  0665                     u720:
  1232                           	line	113
  1233                           	
  1234  0665                     l1389:	
  1235                           ;PR19.c: 112: {
  1236                           ;PR19.c: 113: i+=1;
  1237  0665  3001               	movlw	(01h)
  1238  0666  00A2               	movwf	(??_main+0)+0
  1239  0667  0822               	movf	(??_main+0)+0,w
  1240  0668  07A0               	addwf	(_i),f
  1241                           	line	114
  1242                           	
  1243  0669                     l1391:	
  1244                           ;PR19.c: 114: if(i==3)i=0;
  1245  0669  0820               	movf	(_i),w
  1246  066A  3A03               	xorlw	03h
  1247  066B  1D03               	skipz
  1248  066C  2E6E               	goto	u731
  1249  066D  2E6F               	goto	u730
  1250  066E                     u731:
  1251  066E  2E81               	goto	l1397
  1252  066F                     u730:
  1253                           	
  1254  066F                     l1393:	
  1255  066F  01A0               	clrf	(_i)
  1256  0670  2E81               	goto	l1397
  1257                           	
  1258  0671                     l97:	
  1259                           	line	115
  1260                           ;PR19.c: 115: while(RA0 == 0)
  1261  0671  2E81               	goto	l1397
  1262                           	
  1263  0672                     l99:	
  1264                           	line	117
  1265                           ;PR19.c: 116: {
  1266                           ;PR19.c: 117: RA3=1;
  1267  0672  1585               	bsf	(43/8),(43)&7	;volatile
  1268                           	line	118
  1269                           	
  1270  0673                     l1395:	
  1271                           ;PR19.c: 118: delay(10000);
  1272  0673  3000               	movlw	0
  1273  0674  00F3               	movwf	(?_delay+3)
  1274  0675  3000               	movlw	0
  1275  0676  00F2               	movwf	(?_delay+2)
  1276  0677  3027               	movlw	027h
  1277  0678  00F1               	movwf	(?_delay+1)
  1278  0679  3010               	movlw	010h
  1279  067A  00F0               	movwf	(?_delay)
  1280                           
  1281  067B  120A  118A  249F   	fcall	_delay
              120A  118A         
  1282  0680  2E81               	goto	l1397
  1283                           	line	119
  1284                           	
  1285  0681                     l98:	
  1286                           	line	115
  1287                           	
  1288  0681                     l1397:	
  1289  0681  1283               	bcf	status, 5	;RP0=0, select bank0
  1290  0682  1303               	bcf	status, 6	;RP1=0, select bank0
  1291  0683  1C05               	btfss	(40/8),(40)&7	;volatile
  1292  0684  2E86               	goto	u741
  1293  0685  2E87               	goto	u740
  1294  0686                     u741:
  1295  0686  2E72               	goto	l99
  1296  0687                     u740:
  1297  0687  2E88               	goto	l96
  1298                           	
  1299  0688                     l100:	
  1300                           	line	120
  1301                           	
  1302  0688                     l96:	
  1303                           	line	121
  1304                           ;PR19.c: 119: }
  1305                           ;PR19.c: 120: }
  1306                           ;PR19.c: 121: if(RA1 == 0)
  1307  0688  1885               	btfsc	(41/8),(41)&7	;volatile
  1308  0689  2E8B               	goto	u751
  1309  068A  2E8C               	goto	u750
  1310  068B                     u751:
  1311  068B  2EBB               	goto	l101
  1312  068C                     u750:
  1313  068C  2E9D               	goto	l1403
  1314                           	line	123
  1315                           	
  1316  068D                     l1399:	
  1317                           ;PR19.c: 122: {
  1318                           ;PR19.c: 123: while(RA1 == 0)
  1319  068D  2E9D               	goto	l1403
  1320                           	
  1321  068E                     l103:	
  1322                           	line	125
  1323                           ;PR19.c: 124: {
  1324                           ;PR19.c: 125: RA3=1;
  1325  068E  1585               	bsf	(43/8),(43)&7	;volatile
  1326                           	line	126
  1327                           	
  1328  068F                     l1401:	
  1329                           ;PR19.c: 126: delay(10000);
  1330  068F  3000               	movlw	0
  1331  0690  00F3               	movwf	(?_delay+3)
  1332  0691  3000               	movlw	0
  1333  0692  00F2               	movwf	(?_delay+2)
  1334  0693  3027               	movlw	027h
  1335  0694  00F1               	movwf	(?_delay+1)
  1336  0695  3010               	movlw	010h
  1337  0696  00F0               	movwf	(?_delay)
  1338                           
  1339  0697  120A  118A  249F   	fcall	_delay
              120A  118A         
  1340  069C  2E9D               	goto	l1403
  1341                           	line	127
  1342                           	
  1343  069D                     l102:	
  1344                           	line	123
  1345                           	
  1346  069D                     l1403:	
  1347  069D  1283               	bcf	status, 5	;RP0=0, select bank0
  1348  069E  1303               	bcf	status, 6	;RP1=0, select bank0
  1349  069F  1C85               	btfss	(41/8),(41)&7	;volatile
  1350  06A0  2EA2               	goto	u761
  1351  06A1  2EA3               	goto	u760
  1352  06A2                     u761:
  1353  06A2  2E8E               	goto	l103
  1354  06A3                     u760:
  1355  06A3  2EB1               	goto	l1409
  1356                           	
  1357  06A4                     l104:	
  1358                           	line	128
  1359                           ;PR19.c: 127: }
  1360                           ;PR19.c: 128: switch(i)
  1361  06A4  2EB1               	goto	l1409
  1362                           	line	130
  1363                           ;PR19.c: 129: {
  1364                           ;PR19.c: 130: case 1:alphamode();
  1365                           	
  1366  06A5                     l106:	
  1367                           	
  1368  06A5                     l1405:	
  1369  06A5  120A  118A  258E   	fcall	_alphamode
              120A  118A         
  1370                           	line	131
  1371                           ;PR19.c: 131: case 2:betamode();
  1372                           	
  1373  06AA                     l107:	
  1374  06AA  120A  118A  2504   	fcall	_betamode
              120A  118A         
  1375                           	line	132
  1376                           ;PR19.c: 132: break;
  1377  06AF  2EBB               	goto	l101
  1378                           	line	133
  1379                           	
  1380  06B0                     l1407:	
  1381                           ;PR19.c: 133: }
  1382  06B0  2EBB               	goto	l101
  1383                           	line	128
  1384                           	
  1385  06B1                     l105:	
  1386                           	
  1387  06B1                     l1409:	
  1388  06B1  1283               	bcf	status, 5	;RP0=0, select bank0
  1389  06B2  1303               	bcf	status, 6	;RP1=0, select bank0
  1390  06B3  0820               	movf	(_i),w
  1391                           	; Switch size 1, requested type "space"
  1392                           ; Number of cases is 2, Range of values is 1 to 2
  1393                           ; switch strategies available:
  1394                           ; Name         Instructions Cycles
  1395                           ; simple_byte            7     4 (average)
  1396                           ; direct_byte           17    11 (fixed)
  1397                           ; jumptable            263     9 (fixed)
  1398                           ;	Chosen strategy is simple_byte
  1399                           
  1400                           	opt asmopt_off
  1401  06B4  3A01               	xorlw	1^0	; case 1
  1402  06B5  1903               	skipnz
  1403  06B6  2EA5               	goto	l1405
  1404  06B7  3A03               	xorlw	2^1	; case 2
  1405  06B8  1903               	skipnz
  1406  06B9  2EAA               	goto	l107
  1407  06BA  2EBB               	goto	l101
  1408                           	opt asmopt_on
  1409                           
  1410                           	line	133
  1411                           	
  1412  06BB                     l108:	
  1413                           	line	134
  1414                           	
  1415  06BB                     l101:	
  1416                           	line	135
  1417                           ;PR19.c: 134: }
  1418                           ;PR19.c: 135: RA3=0;
  1419  06BB  1283               	bcf	status, 5	;RP0=0, select bank0
  1420  06BC  1303               	bcf	status, 6	;RP1=0, select bank0
  1421  06BD  1185               	bcf	(43/8),(43)&7	;volatile
  1422                           	line	136
  1423                           	
  1424  06BE                     l1411:	
  1425                           ;PR19.c: 136: shift_display();
  1426  06BE  120A  118A  26C8   	fcall	_shift_display
              120A  118A         
  1427  06C3  2E5F               	goto	l1387
  1428                           	line	137
  1429                           	
  1430  06C4                     l109:	
  1431                           	line	109
  1432  06C4  2E5F               	goto	l1387
  1433                           	
  1434  06C5                     l110:	
  1435                           	line	138
  1436                           	
  1437  06C5                     l111:	
  1438                           	global	start
  1439  06C5  120A  118A  2800   	ljmp	start
  1440                           	opt stack 0
  1441                           GLOBAL	__end_of_main
  1442  06C8                     	__end_of_main:
  1443                           	signat	_main,88
  1444                           	global	_alphamode
  1445                           
  1446 ;; *************** function _alphamode *****************
  1447 ;; Defined at:
  1448 ;;		line 144 in file "PR19.c"
  1449 ;; Parameters:    Size  Location     Type
  1450 ;;		None
  1451 ;; Auto vars:     Size  Location     Type
  1452 ;;		None
  1453 ;; Return value:  Size  Location     Type
  1454 ;;		None               void
  1455 ;; Registers used:
  1456 ;;		wreg, fsr0l, fsr0h, status,2, status,0, pclath, cstack
  1457 ;; Tracked objects:
  1458 ;;		On entry : 0/0
  1459 ;;		On exit  : 0/0
  1460 ;;		Unchanged: 0/0
  1461 ;; Data sizes:     COMMON   BANK0   BANK1   BANK3   BANK2
  1462 ;;      Params:         0       0       0       0       0
  1463 ;;      Locals:         0       0       0       0       0
  1464 ;;      Temps:          0       0       0       0       0
  1465 ;;      Totals:         0       0       0       0       0
  1466 ;;Total ram usage:        0 bytes
  1467 ;; Hardware stack levels used:    1
  1468 ;; Hardware stack levels required when called:    5
  1469 ;; This function calls:
  1470 ;;		_deg_270
  1471 ;;		_delay
  1472 ;;		_deg_0
  1473 ;;		_deg_90
  1474 ;;		_deg_180
  1475 ;;		_clockwise
  1476 ;;		_m_stop
  1477 ;; This function is called by:
  1478 ;;		_main
  1479 ;; This function uses a non-reentrant model
  1480 ;;
  1481                           psect	text537,local,class=CODE,delta=2,merge=1
  1482                           global __ptext537
  1483  058E                     __ptext537:
  1484                           psect	text537
  1485                           	file	"PR19.c"
  1486                           	line	144
  1487                           	global	__size_of_alphamode
  1488  008A                     	__size_of_alphamode	equ	__end_of_alphamode-_alphamode
  1489                           	
  1490  058E                     _alphamode:	
  1491                           	opt	stack 2
  1492                           ; Regs used in _alphamode: [wreg-fsr0h+status,2+status,0+pclath+cstack]
  1493                           	line	145
  1494                           	
  1495  058E                     l1297:	
  1496                           ;PR19.c: 145: while(i==1)
  1497  058E  2E0E               	goto	l1319
  1498                           	
  1499  058F                     l115:	
  1500                           	line	147
  1501                           	
  1502  058F                     l1299:	
  1503                           ;PR19.c: 146: {
  1504                           ;PR19.c: 147: deg_270();
  1505  058F  120A  118A  2478   	fcall	_deg_270
              120A  118A         
  1506                           	line	148
  1507                           	
  1508  0594                     l1301:	
  1509                           ;PR19.c: 148: delay(200000);
  1510  0594  3000               	movlw	0
  1511  0595  00F3               	movwf	(?_delay+3)
  1512  0596  3003               	movlw	03h
  1513  0597  00F2               	movwf	(?_delay+2)
  1514  0598  300D               	movlw	0Dh
  1515  0599  00F1               	movwf	(?_delay+1)
  1516  059A  3040               	movlw	040h
  1517  059B  00F0               	movwf	(?_delay)
  1518                           
  1519  059C  120A  118A  249F   	fcall	_delay
              120A  118A         
  1520                           	line	149
  1521                           	
  1522  05A1                     l1303:	
  1523                           ;PR19.c: 149: deg_0();
  1524  05A1  120A  118A  231D   	fcall	_deg_0
              120A  118A         
  1525                           	line	150
  1526                           ;PR19.c: 150: delay(200000);
  1527  05A6  3000               	movlw	0
  1528  05A7  00F3               	movwf	(?_delay+3)
  1529  05A8  3003               	movlw	03h
  1530  05A9  00F2               	movwf	(?_delay+2)
  1531  05AA  300D               	movlw	0Dh
  1532  05AB  00F1               	movwf	(?_delay+1)
  1533  05AC  3040               	movlw	040h
  1534  05AD  00F0               	movwf	(?_delay)
  1535                           
  1536  05AE  120A  118A  249F   	fcall	_delay
              120A  118A         
  1537                           	line	151
  1538                           	
  1539  05B3                     l1305:	
  1540                           ;PR19.c: 151: deg_90();
  1541  05B3  120A  118A  2451   	fcall	_deg_90
              120A  118A         
  1542                           	line	152
  1543                           	
  1544  05B8                     l1307:	
  1545                           ;PR19.c: 152: delay(400000);
  1546  05B8  3000               	movlw	0
  1547  05B9  00F3               	movwf	(?_delay+3)
  1548  05BA  3006               	movlw	06h
  1549  05BB  00F2               	movwf	(?_delay+2)
  1550  05BC  301A               	movlw	01Ah
  1551  05BD  00F1               	movwf	(?_delay+1)
  1552  05BE  3080               	movlw	080h
  1553  05BF  00F0               	movwf	(?_delay)
  1554                           
  1555  05C0  120A  118A  249F   	fcall	_delay
              120A  118A         
  1556                           	line	153
  1557                           ;PR19.c: 153: deg_180();
  1558  05C5  120A  118A  22FE   	fcall	_deg_180
              120A  118A         
  1559                           	line	154
  1560                           	
  1561  05CA                     l1309:	
  1562                           ;PR19.c: 154: delay(200000);
  1563  05CA  3000               	movlw	0
  1564  05CB  00F3               	movwf	(?_delay+3)
  1565  05CC  3003               	movlw	03h
  1566  05CD  00F2               	movwf	(?_delay+2)
  1567  05CE  300D               	movlw	0Dh
  1568  05CF  00F1               	movwf	(?_delay+1)
  1569  05D0  3040               	movlw	040h
  1570  05D1  00F0               	movwf	(?_delay)
  1571                           
  1572  05D2  120A  118A  249F   	fcall	_delay
              120A  118A         
  1573                           	line	155
  1574                           	
  1575  05D7                     l1311:	
  1576                           ;PR19.c: 155: deg_270();
  1577  05D7  120A  118A  2478   	fcall	_deg_270
              120A  118A         
  1578                           	line	156
  1579                           ;PR19.c: 156: delay(200000);
  1580  05DC  3000               	movlw	0
  1581  05DD  00F3               	movwf	(?_delay+3)
  1582  05DE  3003               	movlw	03h
  1583  05DF  00F2               	movwf	(?_delay+2)
  1584  05E0  300D               	movlw	0Dh
  1585  05E1  00F1               	movwf	(?_delay+1)
  1586  05E2  3040               	movlw	040h
  1587  05E3  00F0               	movwf	(?_delay)
  1588                           
  1589  05E4  120A  118A  249F   	fcall	_delay
              120A  118A         
  1590                           	line	157
  1591                           	
  1592  05E9                     l1313:	
  1593                           ;PR19.c: 157: clockwise();
  1594  05E9  120A  118A  2406   	fcall	_clockwise
              120A  118A         
  1595                           	line	158
  1596                           	
  1597  05EE                     l1315:	
  1598                           ;PR19.c: 158: delay(100000);
  1599  05EE  3000               	movlw	0
  1600  05EF  00F3               	movwf	(?_delay+3)
  1601  05F0  3001               	movlw	01h
  1602  05F1  00F2               	movwf	(?_delay+2)
  1603  05F2  3086               	movlw	086h
  1604  05F3  00F1               	movwf	(?_delay+1)
  1605  05F4  30A0               	movlw	0A0h
  1606  05F5  00F0               	movwf	(?_delay)
  1607                           
  1608  05F6  120A  118A  249F   	fcall	_delay
              120A  118A         
  1609                           	line	159
  1610                           ;PR19.c: 159: m_stop();
  1611  05FB  120A  118A  2275   	fcall	_m_stop
              120A  118A         
  1612                           	line	160
  1613                           	
  1614  0600                     l1317:	
  1615                           ;PR19.c: 160: delay(500000);
  1616  0600  3000               	movlw	0
  1617  0601  00F3               	movwf	(?_delay+3)
  1618  0602  3007               	movlw	07h
  1619  0603  00F2               	movwf	(?_delay+2)
  1620  0604  30A1               	movlw	0A1h
  1621  0605  00F1               	movwf	(?_delay+1)
  1622  0606  3020               	movlw	020h
  1623  0607  00F0               	movwf	(?_delay)
  1624                           
  1625  0608  120A  118A  249F   	fcall	_delay
              120A  118A         
  1626  060D  2E0E               	goto	l1319
  1627                           	line	161
  1628                           	
  1629  060E                     l114:	
  1630                           	line	145
  1631                           	
  1632  060E                     l1319:	
  1633  060E  1283               	bcf	status, 5	;RP0=0, select bank0
  1634  060F  1303               	bcf	status, 6	;RP1=0, select bank0
  1635  0610  0820               	movf	(_i),w
  1636  0611  3A01               	xorlw	01h
  1637  0612  1903               	skipnz
  1638  0613  2E15               	goto	u701
  1639  0614  2E16               	goto	u700
  1640  0615                     u701:
  1641  0615  2D8F               	goto	l1299
  1642  0616                     u700:
  1643  0616  2E17               	goto	l117
  1644                           	
  1645  0617                     l116:	
  1646                           	line	162
  1647                           	
  1648  0617                     l117:	
  1649  0617  0008               	return
  1650                           	opt stack 0
  1651                           GLOBAL	__end_of_alphamode
  1652  0618                     	__end_of_alphamode:
  1653                           	signat	_alphamode,88
  1654                           	global	_betamode
  1655                           
  1656 ;; *************** function _betamode *****************
  1657 ;; Defined at:
  1658 ;;		line 166 in file "PR19.c"
  1659 ;; Parameters:    Size  Location     Type
  1660 ;;		None
  1661 ;; Auto vars:     Size  Location     Type
  1662 ;;		None
  1663 ;; Return value:  Size  Location     Type
  1664 ;;		None               void
  1665 ;; Registers used:
  1666 ;;		wreg, fsr0l, fsr0h, status,2, status,0, pclath, cstack
  1667 ;; Tracked objects:
  1668 ;;		On entry : 0/0
  1669 ;;		On exit  : 0/0
  1670 ;;		Unchanged: 0/0
  1671 ;; Data sizes:     COMMON   BANK0   BANK1   BANK3   BANK2
  1672 ;;      Params:         0       0       0       0       0
  1673 ;;      Locals:         0       0       0       0       0
  1674 ;;      Temps:          0       0       0       0       0
  1675 ;;      Totals:         0       0       0       0       0
  1676 ;;Total ram usage:        0 bytes
  1677 ;; Hardware stack levels used:    1
  1678 ;; Hardware stack levels required when called:    5
  1679 ;; This function calls:
  1680 ;;		_deg_330
  1681 ;;		_delay
  1682 ;;		_deg_0
  1683 ;;		_deg_30
  1684 ;;		_deg_150
  1685 ;;		_deg_180
  1686 ;;		_deg_210
  1687 ;;		_m_stop
  1688 ;; This function is called by:
  1689 ;;		_main
  1690 ;; This function uses a non-reentrant model
  1691 ;;
  1692                           psect	text538,local,class=CODE,delta=2,merge=1
  1693                           global __ptext538
  1694  0504                     __ptext538:
  1695                           psect	text538
  1696                           	file	"PR19.c"
  1697                           	line	166
  1698                           	global	__size_of_betamode
  1699  008A                     	__size_of_betamode	equ	__end_of_betamode-_betamode
  1700                           	
  1701  0504                     _betamode:	
  1702                           	opt	stack 2
  1703                           ; Regs used in _betamode: [wreg-fsr0h+status,2+status,0+pclath+cstack]
  1704                           	line	167
  1705                           	
  1706  0504                     l1321:	
  1707                           ;PR19.c: 167: while(i==2)
  1708  0504  2D84               	goto	l1343
  1709                           	
  1710  0505                     l121:	
  1711                           	line	169
  1712                           	
  1713  0505                     l1323:	
  1714                           ;PR19.c: 168: {
  1715                           ;PR19.c: 169: deg_330();
  1716  0505  120A  118A  239C   	fcall	_deg_330
              120A  118A         
  1717                           	line	170
  1718                           	
  1719  050A                     l1325:	
  1720                           ;PR19.c: 170: delay(200000);
  1721  050A  3000               	movlw	0
  1722  050B  00F3               	movwf	(?_delay+3)
  1723  050C  3003               	movlw	03h
  1724  050D  00F2               	movwf	(?_delay+2)
  1725  050E  300D               	movlw	0Dh
  1726  050F  00F1               	movwf	(?_delay+1)
  1727  0510  3040               	movlw	040h
  1728  0511  00F0               	movwf	(?_delay)
  1729                           
  1730  0512  120A  118A  249F   	fcall	_delay
              120A  118A         
  1731                           	line	171
  1732                           	
  1733  0517                     l1327:	
  1734                           ;PR19.c: 171: deg_0();
  1735  0517  120A  118A  231D   	fcall	_deg_0
              120A  118A         
  1736                           	line	172
  1737                           ;PR19.c: 172: delay(200000);
  1738  051C  3000               	movlw	0
  1739  051D  00F3               	movwf	(?_delay+3)
  1740  051E  3003               	movlw	03h
  1741  051F  00F2               	movwf	(?_delay+2)
  1742  0520  300D               	movlw	0Dh
  1743  0521  00F1               	movwf	(?_delay+1)
  1744  0522  3040               	movlw	040h
  1745  0523  00F0               	movwf	(?_delay)
  1746                           
  1747  0524  120A  118A  249F   	fcall	_delay
              120A  118A         
  1748                           	line	173
  1749                           	
  1750  0529                     l1329:	
  1751                           ;PR19.c: 173: deg_30();
  1752  0529  120A  118A  237C   	fcall	_deg_30
              120A  118A         
  1753                           	line	174
  1754                           	
  1755  052E                     l1331:	
  1756                           ;PR19.c: 174: delay(200000);
  1757  052E  3000               	movlw	0
  1758  052F  00F3               	movwf	(?_delay+3)
  1759  0530  3003               	movlw	03h
  1760  0531  00F2               	movwf	(?_delay+2)
  1761  0532  300D               	movlw	0Dh
  1762  0533  00F1               	movwf	(?_delay+1)
  1763  0534  3040               	movlw	040h
  1764  0535  00F0               	movwf	(?_delay)
  1765                           
  1766  0536  120A  118A  249F   	fcall	_delay
              120A  118A         
  1767                           	line	175
  1768                           ;PR19.c: 175: deg_150();
  1769  053B  120A  118A  235C   	fcall	_deg_150
              120A  118A         
  1770                           	line	176
  1771                           	
  1772  0540                     l1333:	
  1773                           ;PR19.c: 176: delay(200000);
  1774  0540  3000               	movlw	0
  1775  0541  00F3               	movwf	(?_delay+3)
  1776  0542  3003               	movlw	03h
  1777  0543  00F2               	movwf	(?_delay+2)
  1778  0544  300D               	movlw	0Dh
  1779  0545  00F1               	movwf	(?_delay+1)
  1780  0546  3040               	movlw	040h
  1781  0547  00F0               	movwf	(?_delay)
  1782                           
  1783  0548  120A  118A  249F   	fcall	_delay
              120A  118A         
  1784                           	line	177
  1785                           	
  1786  054D                     l1335:	
  1787                           ;PR19.c: 177: deg_180();
  1788  054D  120A  118A  22FE   	fcall	_deg_180
              120A  118A         
  1789                           	line	178
  1790                           ;PR19.c: 178: delay(200000);
  1791  0552  3000               	movlw	0
  1792  0553  00F3               	movwf	(?_delay+3)
  1793  0554  3003               	movlw	03h
  1794  0555  00F2               	movwf	(?_delay+2)
  1795  0556  300D               	movlw	0Dh
  1796  0557  00F1               	movwf	(?_delay+1)
  1797  0558  3040               	movlw	040h
  1798  0559  00F0               	movwf	(?_delay)
  1799                           
  1800  055A  120A  118A  249F   	fcall	_delay
              120A  118A         
  1801                           	line	179
  1802                           	
  1803  055F                     l1337:	
  1804                           ;PR19.c: 179: deg_210();
  1805  055F  120A  118A  233C   	fcall	_deg_210
              120A  118A         
  1806                           	line	180
  1807                           	
  1808  0564                     l1339:	
  1809                           ;PR19.c: 180: delay(200000);
  1810  0564  3000               	movlw	0
  1811  0565  00F3               	movwf	(?_delay+3)
  1812  0566  3003               	movlw	03h
  1813  0567  00F2               	movwf	(?_delay+2)
  1814  0568  300D               	movlw	0Dh
  1815  0569  00F1               	movwf	(?_delay+1)
  1816  056A  3040               	movlw	040h
  1817  056B  00F0               	movwf	(?_delay)
  1818                           
  1819  056C  120A  118A  249F   	fcall	_delay
              120A  118A         
  1820                           	line	181
  1821                           ;PR19.c: 181: m_stop();
  1822  0571  120A  118A  2275   	fcall	_m_stop
              120A  118A         
  1823                           	line	182
  1824                           	
  1825  0576                     l1341:	
  1826                           ;PR19.c: 182: delay(500000);
  1827  0576  3000               	movlw	0
  1828  0577  00F3               	movwf	(?_delay+3)
  1829  0578  3007               	movlw	07h
  1830  0579  00F2               	movwf	(?_delay+2)
  1831  057A  30A1               	movlw	0A1h
  1832  057B  00F1               	movwf	(?_delay+1)
  1833  057C  3020               	movlw	020h
  1834  057D  00F0               	movwf	(?_delay)
  1835                           
  1836  057E  120A  118A  249F   	fcall	_delay
              120A  118A         
  1837  0583  2D84               	goto	l1343
  1838                           	line	183
  1839                           	
  1840  0584                     l120:	
  1841                           	line	167
  1842                           	
  1843  0584                     l1343:	
  1844  0584  1283               	bcf	status, 5	;RP0=0, select bank0
  1845  0585  1303               	bcf	status, 6	;RP1=0, select bank0
  1846  0586  0820               	movf	(_i),w
  1847  0587  3A02               	xorlw	02h
  1848  0588  1903               	skipnz
  1849  0589  2D8B               	goto	u711
  1850  058A  2D8C               	goto	u710
  1851  058B                     u711:
  1852  058B  2D05               	goto	l1323
  1853  058C                     u710:
  1854  058C  2D8D               	goto	l123
  1855                           	
  1856  058D                     l122:	
  1857                           	line	184
  1858                           	
  1859  058D                     l123:	
  1860  058D  0008               	return
  1861                           	opt stack 0
  1862                           GLOBAL	__end_of_betamode
  1863  058E                     	__end_of_betamode:
  1864                           	signat	_betamode,88
  1865                           	global	_shift_display
  1866                           
  1867 ;; *************** function _shift_display *****************
  1868 ;; Defined at:
  1869 ;;		line 417 in file "PR19.c"
  1870 ;; Parameters:    Size  Location     Type
  1871 ;;		None
  1872 ;; Auto vars:     Size  Location     Type
  1873 ;;		None
  1874 ;; Return value:  Size  Location     Type
  1875 ;;		None               void
  1876 ;; Registers used:
  1877 ;;		wreg, fsr0l, fsr0h, status,2, status,0, pclath, cstack
  1878 ;; Tracked objects:
  1879 ;;		On entry : 0/0
  1880 ;;		On exit  : 0/0
  1881 ;;		Unchanged: 0/0
  1882 ;; Data sizes:     COMMON   BANK0   BANK1   BANK3   BANK2
  1883 ;;      Params:         0       0       0       0       0
  1884 ;;      Locals:         0       0       0       0       0
  1885 ;;      Temps:          1       0       0       0       0
  1886 ;;      Totals:         1       0       0       0       0
  1887 ;;Total ram usage:        1 bytes
  1888 ;; Hardware stack levels used:    1
  1889 ;; Hardware stack levels required when called:    3
  1890 ;; This function calls:
  1891 ;;		_lcd_clr
  1892 ;;		_lcd_goto
  1893 ;;		_send_string
  1894 ;;		_send_config
  1895 ;;		_delay
  1896 ;; This function is called by:
  1897 ;;		_main
  1898 ;; This function uses a non-reentrant model
  1899 ;;
  1900                           psect	text539,local,class=CODE,delta=2,merge=1
  1901                           global __ptext539
  1902  06C8                     __ptext539:
  1903                           psect	text539
  1904                           	file	"PR19.c"
  1905                           	line	417
  1906                           	global	__size_of_shift_display
  1907  0138                     	__size_of_shift_display	equ	__end_of_shift_display-_shift_display
  1908                           	
  1909  06C8                     _shift_display:	
  1910                           	opt	stack 4
  1911                           ; Regs used in _shift_display: [wreg-fsr0h+status,2+status,0+pclath+cstack]
  1912                           	line	418
  1913                           	
  1914  06C8                     l1119:	
  1915                           ;PR19.c: 418: switch(i)
  1916  06C8  2FF2               	goto	l1181
  1917                           	line	420
  1918                           ;PR19.c: 419: {
  1919                           ;PR19.c: 420: case 0:
  1920                           	
  1921  06C9                     l208:	
  1922                           	line	421
  1923                           ;PR19.c: 421: shift=0;
  1924  06C9  01A1               	clrf	(_shift)
  1925                           	line	422
  1926                           	
  1927  06CA                     l1121:	
  1928                           ;PR19.c: 422: lcd_clr();
  1929  06CA  120A  118A  2288   	fcall	_lcd_clr
              120A  118A         
  1930                           	line	423
  1931                           ;PR19.c: 423: lcd_goto(1);
  1932  06CF  3001               	movlw	(01h)
  1933  06D0  120A  118A  22E1   	fcall	_lcd_goto
              120A  118A         
  1934                           	line	424
  1935                           	
  1936  06D5                     l1123:	
  1937                           ;PR19.c: 424: send_string("Cytron");
  1938  06D5  3047               	movlw	((STR_31-__stringbase))&0ffh
  1939  06D6  120A  118A  242B   	fcall	_send_string
              120A  118A         
  1940                           	line	425
  1941                           	
  1942  06DB                     l1125:	
  1943                           ;PR19.c: 425: lcd_goto(20);
  1944  06DB  3014               	movlw	(014h)
  1945  06DC  120A  118A  22E1   	fcall	_lcd_goto
              120A  118A         
  1946                           	line	426
  1947                           ;PR19.c: 426: send_string("Flexibot");
  1948  06E1  3008               	movlw	((STR_32-__stringbase))&0ffh
  1949  06E2  120A  118A  242B   	fcall	_send_string
              120A  118A         
  1950                           	line	427
  1951                           ;PR19.c: 427: for( ;shift<8;shift+=1)
  1952  06E7  2F08               	goto	l1133
  1953                           	line	428
  1954                           	
  1955  06E8                     l210:	
  1956                           	line	429
  1957                           ;PR19.c: 428: {
  1958                           ;PR19.c: 429: if(RA0 == 0)return;
  1959  06E8  1805               	btfsc	(40/8),(40)&7	;volatile
  1960  06E9  2EEB               	goto	u571
  1961  06EA  2EEC               	goto	u570
  1962  06EB                     u571:
  1963  06EB  2EEE               	goto	l1129
  1964  06EC                     u570:
  1965  06EC  2FFF               	goto	l212
  1966                           	
  1967  06ED                     l1127:	
  1968  06ED  2FFF               	goto	l212
  1969                           	
  1970  06EE                     l211:	
  1971                           	line	430
  1972                           	
  1973  06EE                     l1129:	
  1974                           ;PR19.c: 430: send_config(0b00011100);
  1975  06EE  301C               	movlw	(01Ch)
  1976  06EF  120A  118A  23E1   	fcall	_send_config
              120A  118A         
  1977                           	line	431
  1978                           ;PR19.c: 431: delay(50000);
  1979  06F4  3000               	movlw	0
  1980  06F5  00F3               	movwf	(?_delay+3)
  1981  06F6  3000               	movlw	0
  1982  06F7  00F2               	movwf	(?_delay+2)
  1983  06F8  30C3               	movlw	0C3h
  1984  06F9  00F1               	movwf	(?_delay+1)
  1985  06FA  3050               	movlw	050h
  1986  06FB  00F0               	movwf	(?_delay)
  1987                           
  1988  06FC  120A  118A  249F   	fcall	_delay
              120A  118A         
  1989                           	line	427
  1990                           	
  1991  0701                     l1131:	
  1992  0701  3001               	movlw	(01h)
  1993  0702  00FB               	movwf	(??_shift_display+0)+0
  1994  0703  087B               	movf	(??_shift_display+0)+0,w
  1995  0704  1283               	bcf	status, 5	;RP0=0, select bank0
  1996  0705  1303               	bcf	status, 6	;RP1=0, select bank0
  1997  0706  07A1               	addwf	(_shift),f
  1998  0707  2F08               	goto	l1133
  1999                           	
  2000  0708                     l209:	
  2001                           	
  2002  0708                     l1133:	
  2003  0708  3008               	movlw	(08h)
  2004  0709  1283               	bcf	status, 5	;RP0=0, select bank0
  2005  070A  1303               	bcf	status, 6	;RP1=0, select bank0
  2006  070B  0221               	subwf	(_shift),w
  2007  070C  1C03               	skipc
  2008  070D  2F0F               	goto	u581
  2009  070E  2F10               	goto	u580
  2010  070F                     u581:
  2011  070F  2EE8               	goto	l210
  2012  0710                     u580:
  2013  0710  2F30               	goto	l1141
  2014                           	
  2015  0711                     l213:	
  2016                           	line	433
  2017                           ;PR19.c: 432: }
  2018                           ;PR19.c: 433: for( ;shift>0;shift-=1)
  2019  0711  2F30               	goto	l1141
  2020                           	line	434
  2021                           	
  2022  0712                     l215:	
  2023                           	line	435
  2024                           ;PR19.c: 434: {
  2025                           ;PR19.c: 435: if(RA0 == 0)return;
  2026  0712  1805               	btfsc	(40/8),(40)&7	;volatile
  2027  0713  2F15               	goto	u591
  2028  0714  2F16               	goto	u590
  2029  0715                     u591:
  2030  0715  2F18               	goto	l1137
  2031  0716                     u590:
  2032  0716  2FFF               	goto	l212
  2033                           	
  2034  0717                     l1135:	
  2035  0717  2FFF               	goto	l212
  2036                           	
  2037  0718                     l216:	
  2038                           	line	436
  2039                           	
  2040  0718                     l1137:	
  2041                           ;PR19.c: 436: send_config(0b00011000);
  2042  0718  3018               	movlw	(018h)
  2043  0719  120A  118A  23E1   	fcall	_send_config
              120A  118A         
  2044                           	line	437
  2045                           ;PR19.c: 437: delay(50000);
  2046  071E  3000               	movlw	0
  2047  071F  00F3               	movwf	(?_delay+3)
  2048  0720  3000               	movlw	0
  2049  0721  00F2               	movwf	(?_delay+2)
  2050  0722  30C3               	movlw	0C3h
  2051  0723  00F1               	movwf	(?_delay+1)
  2052  0724  3050               	movlw	050h
  2053  0725  00F0               	movwf	(?_delay)
  2054                           
  2055  0726  120A  118A  249F   	fcall	_delay
              120A  118A         
  2056                           	line	433
  2057                           	
  2058  072B                     l1139:	
  2059  072B  3001               	movlw	low(01h)
  2060  072C  1283               	bcf	status, 5	;RP0=0, select bank0
  2061  072D  1303               	bcf	status, 6	;RP1=0, select bank0
  2062  072E  02A1               	subwf	(_shift),f
  2063  072F  2F30               	goto	l1141
  2064                           	
  2065  0730                     l214:	
  2066                           	
  2067  0730                     l1141:	
  2068  0730  08A1               	movf	(_shift),f
  2069  0731  1D03               	skipz
  2070  0732  2F34               	goto	u601
  2071  0733  2F35               	goto	u600
  2072  0734                     u601:
  2073  0734  2F12               	goto	l215
  2074  0735                     u600:
  2075  0735  2FFF               	goto	l212
  2076                           	
  2077  0736                     l217:	
  2078                           	line	439
  2079                           ;PR19.c: 438: }
  2080                           ;PR19.c: 439: break;
  2081  0736  2FFF               	goto	l212
  2082                           	line	440
  2083                           ;PR19.c: 440: case 1:
  2084                           	
  2085  0737                     l219:	
  2086                           	line	441
  2087                           ;PR19.c: 441: shift=0;
  2088  0737  01A1               	clrf	(_shift)
  2089                           	line	442
  2090                           	
  2091  0738                     l1143:	
  2092                           ;PR19.c: 442: lcd_clr();
  2093  0738  120A  118A  2288   	fcall	_lcd_clr
              120A  118A         
  2094                           	line	443
  2095                           ;PR19.c: 443: lcd_goto(0);
  2096  073D  3000               	movlw	(0)
  2097  073E  120A  118A  22E1   	fcall	_lcd_goto
              120A  118A         
  2098                           	line	444
  2099                           	
  2100  0743                     l1145:	
  2101                           ;PR19.c: 444: send_string("Cytron Flexibot");
  2102  0743  3001               	movlw	((STR_33-__stringbase))&0ffh
  2103  0744  120A  118A  242B   	fcall	_send_string
              120A  118A         
  2104                           	line	445
  2105                           	
  2106  0749                     l1147:	
  2107                           ;PR19.c: 445: lcd_goto(22);
  2108  0749  3016               	movlw	(016h)
  2109  074A  120A  118A  22E1   	fcall	_lcd_goto
              120A  118A         
  2110                           	line	446
  2111                           ;PR19.c: 446: send_string("Alpha Mode?");
  2112  074F  301F               	movlw	((STR_34-__stringbase))&0ffh
  2113  0750  120A  118A  242B   	fcall	_send_string
              120A  118A         
  2114                           	line	447
  2115                           	
  2116  0755                     l1149:	
  2117                           ;PR19.c: 447: if(RA0 == 0 || RA1 ==0)return;
  2118  0755  1283               	bcf	status, 5	;RP0=0, select bank0
  2119  0756  1303               	bcf	status, 6	;RP1=0, select bank0
  2120  0757  1C05               	btfss	(40/8),(40)&7	;volatile
  2121  0758  2F5A               	goto	u611
  2122  0759  2F5B               	goto	u610
  2123  075A                     u611:
  2124  075A  2FFF               	goto	l212
  2125  075B                     u610:
  2126                           	
  2127  075B                     l1151:	
  2128  075B  1885               	btfsc	(41/8),(41)&7	;volatile
  2129  075C  2F5E               	goto	u621
  2130  075D  2F5F               	goto	u620
  2131  075E                     u621:
  2132  075E  2F61               	goto	l1153
  2133  075F                     u620:
  2134  075F  2FFF               	goto	l212
  2135                           	
  2136  0760                     l222:	
  2137  0760  2FFF               	goto	l212
  2138                           	
  2139  0761                     l220:	
  2140                           	line	448
  2141                           	
  2142  0761                     l1153:	
  2143                           ;PR19.c: 448: send_config(0b00011100);
  2144  0761  301C               	movlw	(01Ch)
  2145  0762  120A  118A  23E1   	fcall	_send_config
              120A  118A         
  2146                           	line	449
  2147                           ;PR19.c: 449: delay(80000);
  2148  0767  3000               	movlw	0
  2149  0768  00F3               	movwf	(?_delay+3)
  2150  0769  3001               	movlw	01h
  2151  076A  00F2               	movwf	(?_delay+2)
  2152  076B  3038               	movlw	038h
  2153  076C  00F1               	movwf	(?_delay+1)
  2154  076D  3080               	movlw	080h
  2155  076E  00F0               	movwf	(?_delay)
  2156                           
  2157  076F  120A  118A  249F   	fcall	_delay
              120A  118A         
  2158                           	line	450
  2159                           	
  2160  0774                     l1155:	
  2161                           ;PR19.c: 450: if(RA0 == 0 || RA1 ==0)return;
  2162  0774  1283               	bcf	status, 5	;RP0=0, select bank0
  2163  0775  1303               	bcf	status, 6	;RP1=0, select bank0
  2164  0776  1C05               	btfss	(40/8),(40)&7	;volatile
  2165  0777  2F79               	goto	u631
  2166  0778  2F7A               	goto	u630
  2167  0779                     u631:
  2168  0779  2FFF               	goto	l212
  2169  077A                     u630:
  2170                           	
  2171  077A                     l1157:	
  2172  077A  1885               	btfsc	(41/8),(41)&7	;volatile
  2173  077B  2F7D               	goto	u641
  2174  077C  2F7E               	goto	u640
  2175  077D                     u641:
  2176  077D  2F80               	goto	l1159
  2177  077E                     u640:
  2178  077E  2FFF               	goto	l212
  2179                           	
  2180  077F                     l225:	
  2181  077F  2FFF               	goto	l212
  2182                           	
  2183  0780                     l223:	
  2184                           	line	451
  2185                           	
  2186  0780                     l1159:	
  2187                           ;PR19.c: 451: send_config(0b00011000);
  2188  0780  3018               	movlw	(018h)
  2189  0781  120A  118A  23E1   	fcall	_send_config
              120A  118A         
  2190                           	line	452
  2191                           ;PR19.c: 452: delay(80000);
  2192  0786  3000               	movlw	0
  2193  0787  00F3               	movwf	(?_delay+3)
  2194  0788  3001               	movlw	01h
  2195  0789  00F2               	movwf	(?_delay+2)
  2196  078A  3038               	movlw	038h
  2197  078B  00F1               	movwf	(?_delay+1)
  2198  078C  3080               	movlw	080h
  2199  078D  00F0               	movwf	(?_delay)
  2200                           
  2201  078E  120A  118A  249F   	fcall	_delay
              120A  118A         
  2202                           	line	453
  2203                           ;PR19.c: 453: break;
  2204  0793  2FFF               	goto	l212
  2205                           	line	454
  2206                           ;PR19.c: 454: case 2:
  2207                           	
  2208  0794                     l226:	
  2209                           	line	455
  2210                           ;PR19.c: 455: shift=0;
  2211  0794  01A1               	clrf	(_shift)
  2212                           	line	456
  2213                           	
  2214  0795                     l1161:	
  2215                           ;PR19.c: 456: lcd_clr();
  2216  0795  120A  118A  2288   	fcall	_lcd_clr
              120A  118A         
  2217                           	line	457
  2218                           ;PR19.c: 457: lcd_goto(0);
  2219  079A  3000               	movlw	(0)
  2220  079B  120A  118A  22E1   	fcall	_lcd_goto
              120A  118A         
  2221                           	line	458
  2222                           	
  2223  07A0                     l1163:	
  2224                           ;PR19.c: 458: send_string("Cytron Flexibot");
  2225  07A0  3001               	movlw	((STR_35-__stringbase))&0ffh
  2226  07A1  120A  118A  242B   	fcall	_send_string
              120A  118A         
  2227                           	line	459
  2228                           	
  2229  07A6                     l1165:	
  2230                           ;PR19.c: 459: lcd_goto(22);
  2231  07A6  3016               	movlw	(016h)
  2232  07A7  120A  118A  22E1   	fcall	_lcd_goto
              120A  118A         
  2233                           	line	460
  2234                           ;PR19.c: 460: send_string("Beta Mode?");
  2235  07AC  302B               	movlw	((STR_36-__stringbase))&0ffh
  2236  07AD  120A  118A  242B   	fcall	_send_string
              120A  118A         
  2237                           	line	461
  2238                           	
  2239  07B2                     l1167:	
  2240                           ;PR19.c: 461: if(RA0 == 0 || RA1 ==0)return;
  2241  07B2  1283               	bcf	status, 5	;RP0=0, select bank0
  2242  07B3  1303               	bcf	status, 6	;RP1=0, select bank0
  2243  07B4  1C05               	btfss	(40/8),(40)&7	;volatile
  2244  07B5  2FB7               	goto	u651
  2245  07B6  2FB8               	goto	u650
  2246  07B7                     u651:
  2247  07B7  2FFF               	goto	l212
  2248  07B8                     u650:
  2249                           	
  2250  07B8                     l1169:	
  2251  07B8  1885               	btfsc	(41/8),(41)&7	;volatile
  2252  07B9  2FBB               	goto	u661
  2253  07BA  2FBC               	goto	u660
  2254  07BB                     u661:
  2255  07BB  2FBE               	goto	l1171
  2256  07BC                     u660:
  2257  07BC  2FFF               	goto	l212
  2258                           	
  2259  07BD                     l229:	
  2260  07BD  2FFF               	goto	l212
  2261                           	
  2262  07BE                     l227:	
  2263                           	line	462
  2264                           	
  2265  07BE                     l1171:	
  2266                           ;PR19.c: 462: send_config(0b00011100);
  2267  07BE  301C               	movlw	(01Ch)
  2268  07BF  120A  118A  23E1   	fcall	_send_config
              120A  118A         
  2269                           	line	463
  2270                           ;PR19.c: 463: delay(80000);
  2271  07C4  3000               	movlw	0
  2272  07C5  00F3               	movwf	(?_delay+3)
  2273  07C6  3001               	movlw	01h
  2274  07C7  00F2               	movwf	(?_delay+2)
  2275  07C8  3038               	movlw	038h
  2276  07C9  00F1               	movwf	(?_delay+1)
  2277  07CA  3080               	movlw	080h
  2278  07CB  00F0               	movwf	(?_delay)
  2279                           
  2280  07CC  120A  118A  249F   	fcall	_delay
              120A  118A         
  2281                           	line	464
  2282                           	
  2283  07D1                     l1173:	
  2284                           ;PR19.c: 464: if(RA0 == 0 || RA1 ==0)return;
  2285  07D1  1283               	bcf	status, 5	;RP0=0, select bank0
  2286  07D2  1303               	bcf	status, 6	;RP1=0, select bank0
  2287  07D3  1C05               	btfss	(40/8),(40)&7	;volatile
  2288  07D4  2FD6               	goto	u671
  2289  07D5  2FD7               	goto	u670
  2290  07D6                     u671:
  2291  07D6  2FFF               	goto	l212
  2292  07D7                     u670:
  2293                           	
  2294  07D7                     l1175:	
  2295  07D7  1885               	btfsc	(41/8),(41)&7	;volatile
  2296  07D8  2FDA               	goto	u681
  2297  07D9  2FDB               	goto	u680
  2298  07DA                     u681:
  2299  07DA  2FDD               	goto	l1177
  2300  07DB                     u680:
  2301  07DB  2FFF               	goto	l212
  2302                           	
  2303  07DC                     l232:	
  2304  07DC  2FFF               	goto	l212
  2305                           	
  2306  07DD                     l230:	
  2307                           	line	465
  2308                           	
  2309  07DD                     l1177:	
  2310                           ;PR19.c: 465: send_config(0b00011000);
  2311  07DD  3018               	movlw	(018h)
  2312  07DE  120A  118A  23E1   	fcall	_send_config
              120A  118A         
  2313                           	line	466
  2314                           ;PR19.c: 466: delay(80000);
  2315  07E3  3000               	movlw	0
  2316  07E4  00F3               	movwf	(?_delay+3)
  2317  07E5  3001               	movlw	01h
  2318  07E6  00F2               	movwf	(?_delay+2)
  2319  07E7  3038               	movlw	038h
  2320  07E8  00F1               	movwf	(?_delay+1)
  2321  07E9  3080               	movlw	080h
  2322  07EA  00F0               	movwf	(?_delay)
  2323                           
  2324  07EB  120A  118A  249F   	fcall	_delay
              120A  118A         
  2325                           	line	467
  2326                           ;PR19.c: 467: break;
  2327  07F0  2FFF               	goto	l212
  2328                           	line	468
  2329                           	
  2330  07F1                     l1179:	
  2331                           ;PR19.c: 468: }
  2332  07F1  2FFF               	goto	l212
  2333                           	line	418
  2334                           	
  2335  07F2                     l207:	
  2336                           	
  2337  07F2                     l1181:	
  2338  07F2  1283               	bcf	status, 5	;RP0=0, select bank0
  2339  07F3  1303               	bcf	status, 6	;RP1=0, select bank0
  2340  07F4  0820               	movf	(_i),w
  2341                           	; Switch size 1, requested type "space"
  2342                           ; Number of cases is 3, Range of values is 0 to 2
  2343                           ; switch strategies available:
  2344                           ; Name         Instructions Cycles
  2345                           ; simple_byte           10     6 (average)
  2346                           ; direct_byte           17     8 (fixed)
  2347                           ; jumptable            260     6 (fixed)
  2348                           ; rangetable             7     6 (fixed)
  2349                           ; spacedrange           12     9 (fixed)
  2350                           ; locatedrange           3     3 (fixed)
  2351                           ;	Chosen strategy is simple_byte
  2352                           
  2353                           	opt asmopt_off
  2354  07F5  3A00               	xorlw	0^0	; case 0
  2355  07F6  1903               	skipnz
  2356  07F7  2EC9               	goto	l208
  2357  07F8  3A01               	xorlw	1^0	; case 1
  2358  07F9  1903               	skipnz
  2359  07FA  2F37               	goto	l219
  2360  07FB  3A03               	xorlw	2^1	; case 2
  2361  07FC  1903               	skipnz
  2362  07FD  2F94               	goto	l226
  2363  07FE  2FFF               	goto	l212
  2364                           	opt asmopt_on
  2365                           
  2366                           	line	468
  2367                           	
  2368  07FF                     l218:	
  2369                           	line	469
  2370                           	
  2371  07FF                     l212:	
  2372  07FF  0008               	return
  2373                           	opt stack 0
  2374                           GLOBAL	__end_of_shift_display
  2375  0800                     	__end_of_shift_display:
  2376                           	signat	_shift_display,88
  2377                           	global	_deg_270
  2378                           
  2379 ;; *************** function _deg_270 *****************
  2380 ;; Defined at:
  2381 ;;		line 311 in file "PR19.c"
  2382 ;; Parameters:    Size  Location     Type
  2383 ;;		None
  2384 ;; Auto vars:     Size  Location     Type
  2385 ;;		None
  2386 ;; Return value:  Size  Location     Type
  2387 ;;		None               void
  2388 ;; Registers used:
  2389 ;;		wreg, fsr0l, fsr0h, status,2, status,0, pclath, cstack
  2390 ;; Tracked objects:
  2391 ;;		On entry : 0/0
  2392 ;;		On exit  : 0/0
  2393 ;;		Unchanged: 0/0
  2394 ;; Data sizes:     COMMON   BANK0   BANK1   BANK3   BANK2
  2395 ;;      Params:         0       0       0       0       0
  2396 ;;      Locals:         0       0       0       0       0
  2397 ;;      Temps:          1       0       0       0       0
  2398 ;;      Totals:         1       0       0       0       0
  2399 ;;Total ram usage:        1 bytes
  2400 ;; Hardware stack levels used:    1
  2401 ;; Hardware stack levels required when called:    4
  2402 ;; This function calls:
  2403 ;;		_lm_run
  2404 ;;		_rm_run
  2405 ;;		_bm_run
  2406 ;;		_mode_display
  2407 ;; This function is called by:
  2408 ;;		_alphamode
  2409 ;; This function uses a non-reentrant model
  2410 ;;
  2411                           psect	text540,local,class=CODE,delta=2,merge=1
  2412                           global __ptext540
  2413  0478                     __ptext540:
  2414                           psect	text540
  2415                           	file	"PR19.c"
  2416                           	line	311
  2417                           	global	__size_of_deg_270
  2418  0027                     	__size_of_deg_270	equ	__end_of_deg_270-_deg_270
  2419                           	
  2420  0478                     _deg_270:	
  2421                           	opt	stack 2
  2422                           ; Regs used in _deg_270: [wreg-fsr0h+status,2+status,0+pclath+cstack]
  2423                           	line	312
  2424                           	
  2425  0478                     l1195:	
  2426                           ;PR19.c: 312: CCPR1L=190;
  2427  0478  30BE               	movlw	(0BEh)
  2428  0479  1283               	bcf	status, 5	;RP0=0, select bank0
  2429  047A  1303               	bcf	status, 6	;RP1=0, select bank0
  2430  047B  0095               	movwf	(21)	;volatile
  2431                           	line	313
  2432                           ;PR19.c: 313: CCPR2L=190;
  2433  047C  30BE               	movlw	(0BEh)
  2434  047D  009B               	movwf	(27)	;volatile
  2435                           	line	314
  2436                           ;PR19.c: 314: CCPR3L=255;
  2437  047E  30FF               	movlw	(0FFh)
  2438  047F  1683               	bsf	status, 5	;RP0=1, select bank1
  2439  0480  1303               	bcf	status, 6	;RP1=0, select bank1
  2440  0481  0095               	movwf	(149)^080h	;volatile
  2441                           	line	315
  2442                           	
  2443  0482                     l1197:	
  2444                           ;PR19.c: 315: lm_run(0);
  2445  0482  3000               	movlw	(0)
  2446  0483  120A  118A  22CA   	fcall	_lm_run
              120A  118A         
  2447                           	line	316
  2448                           	
  2449  0488                     l1199:	
  2450                           ;PR19.c: 316: rm_run(0);
  2451  0488  3000               	movlw	(0)
  2452  0489  120A  118A  22B3   	fcall	_rm_run
              120A  118A         
  2453                           	line	317
  2454                           	
  2455  048E                     l1201:	
  2456                           ;PR19.c: 317: bm_run(1);
  2457  048E  3001               	movlw	(01h)
  2458  048F  120A  118A  229C   	fcall	_bm_run
              120A  118A         
  2459                           	line	318
  2460                           	
  2461  0494                     l1203:	
  2462                           ;PR19.c: 318: mode_display("270","Degree");
  2463  0494  3040               	movlw	((STR_22-__stringbase))&0ffh
  2464  0495  00FD               	movwf	(??_deg_270+0)+0
  2465  0496  087D               	movf	(??_deg_270+0)+0,w
  2466  0497  00FB               	movwf	(?_mode_display)
  2467  0498  306B               	movlw	((STR_21-__stringbase))&0ffh
  2468  0499  120A  118A  24CF   	fcall	_mode_display
              120A  118A         
  2469                           	line	319
  2470                           	
  2471  049E                     l165:	
  2472  049E  0008               	return
  2473                           	opt stack 0
  2474                           GLOBAL	__end_of_deg_270
  2475  049F                     	__end_of_deg_270:
  2476                           	signat	_deg_270,88
  2477                           	global	_deg_0
  2478                           
  2479 ;; *************** function _deg_0 *****************
  2480 ;; Defined at:
  2481 ;;		line 219 in file "PR19.c"
  2482 ;; Parameters:    Size  Location     Type
  2483 ;;		None
  2484 ;; Auto vars:     Size  Location     Type
  2485 ;;		None
  2486 ;; Return value:  Size  Location     Type
  2487 ;;		None               void
  2488 ;; Registers used:
  2489 ;;		wreg, fsr0l, fsr0h, status,2, status,0, pclath, cstack
  2490 ;; Tracked objects:
  2491 ;;		On entry : 0/0
  2492 ;;		On exit  : 0/0
  2493 ;;		Unchanged: 0/0
  2494 ;; Data sizes:     COMMON   BANK0   BANK1   BANK3   BANK2
  2495 ;;      Params:         0       0       0       0       0
  2496 ;;      Locals:         0       0       0       0       0
  2497 ;;      Temps:          1       0       0       0       0
  2498 ;;      Totals:         1       0       0       0       0
  2499 ;;Total ram usage:        1 bytes
  2500 ;; Hardware stack levels used:    1
  2501 ;; Hardware stack levels required when called:    4
  2502 ;; This function calls:
  2503 ;;		_lm_run
  2504 ;;		_rm_run
  2505 ;;		_mode_display
  2506 ;; This function is called by:
  2507 ;;		_alphamode
  2508 ;;		_betamode
  2509 ;; This function uses a non-reentrant model
  2510 ;;
  2511                           psect	text541,local,class=CODE,delta=2,merge=1
  2512                           global __ptext541
  2513  031D                     __ptext541:
  2514                           psect	text541
  2515                           	file	"PR19.c"
  2516                           	line	219
  2517                           	global	__size_of_deg_0
  2518  001F                     	__size_of_deg_0	equ	__end_of_deg_0-_deg_0
  2519                           	
  2520  031D                     _deg_0:	
  2521                           	opt	stack 2
  2522                           ; Regs used in _deg_0: [wreg-fsr0h+status,2+status,0+pclath+cstack]
  2523                           	line	220
  2524                           	
  2525  031D                     l1205:	
  2526                           ;PR19.c: 220: CCPR1L=CCPR2L=255;
  2527  031D  30FF               	movlw	(0FFh)
  2528  031E  1283               	bcf	status, 5	;RP0=0, select bank0
  2529  031F  1303               	bcf	status, 6	;RP1=0, select bank0
  2530  0320  009B               	movwf	(27)	;volatile
  2531  0321  0095               	movwf	(21)	;volatile
  2532                           	line	221
  2533                           	
  2534  0322                     l1207:	
  2535                           ;PR19.c: 221: CCPR3L=0;
  2536  0322  1683               	bsf	status, 5	;RP0=1, select bank1
  2537  0323  1303               	bcf	status, 6	;RP1=0, select bank1
  2538  0324  0195               	clrf	(149)^080h	;volatile
  2539                           	line	222
  2540                           	
  2541  0325                     l1209:	
  2542                           ;PR19.c: 222: lm_run(1);
  2543  0325  3001               	movlw	(01h)
  2544  0326  120A  118A  22CA   	fcall	_lm_run
              120A  118A         
  2545                           	line	223
  2546                           	
  2547  032B                     l1211:	
  2548                           ;PR19.c: 223: rm_run(0);
  2549  032B  3000               	movlw	(0)
  2550  032C  120A  118A  22B3   	fcall	_rm_run
              120A  118A         
  2551                           	line	224
  2552                           	
  2553  0331                     l1213:	
  2554                           ;PR19.c: 224: mode_display("0","Degree");
  2555  0331  3040               	movlw	((STR_4-__stringbase))&0ffh
  2556  0332  00FD               	movwf	(??_deg_0+0)+0
  2557  0333  087D               	movf	(??_deg_0+0)+0,w
  2558  0334  00FB               	movwf	(?_mode_display)
  2559  0335  3055               	movlw	((STR_3-__stringbase))&0ffh
  2560  0336  120A  118A  24CF   	fcall	_mode_display
              120A  118A         
  2561                           	line	225
  2562                           	
  2563  033B                     l138:	
  2564  033B  0008               	return
  2565                           	opt stack 0
  2566                           GLOBAL	__end_of_deg_0
  2567  033C                     	__end_of_deg_0:
  2568                           	signat	_deg_0,88
  2569                           	global	_deg_90
  2570                           
  2571 ;; *************** function _deg_90 *****************
  2572 ;; Defined at:
  2573 ;;		line 249 in file "PR19.c"
  2574 ;; Parameters:    Size  Location     Type
  2575 ;;		None
  2576 ;; Auto vars:     Size  Location     Type
  2577 ;;		None
  2578 ;; Return value:  Size  Location     Type
  2579 ;;		None               void
  2580 ;; Registers used:
  2581 ;;		wreg, fsr0l, fsr0h, status,2, status,0, pclath, cstack
  2582 ;; Tracked objects:
  2583 ;;		On entry : 0/0
  2584 ;;		On exit  : 0/0
  2585 ;;		Unchanged: 0/0
  2586 ;; Data sizes:     COMMON   BANK0   BANK1   BANK3   BANK2
  2587 ;;      Params:         0       0       0       0       0
  2588 ;;      Locals:         0       0       0       0       0
  2589 ;;      Temps:          1       0       0       0       0
  2590 ;;      Totals:         1       0       0       0       0
  2591 ;;Total ram usage:        1 bytes
  2592 ;; Hardware stack levels used:    1
  2593 ;; Hardware stack levels required when called:    4
  2594 ;; This function calls:
  2595 ;;		_lm_run
  2596 ;;		_rm_run
  2597 ;;		_bm_run
  2598 ;;		_mode_display
  2599 ;; This function is called by:
  2600 ;;		_alphamode
  2601 ;; This function uses a non-reentrant model
  2602 ;;
  2603                           psect	text542,local,class=CODE,delta=2,merge=1
  2604                           global __ptext542
  2605  0451                     __ptext542:
  2606                           psect	text542
  2607                           	file	"PR19.c"
  2608                           	line	249
  2609                           	global	__size_of_deg_90
  2610  0027                     	__size_of_deg_90	equ	__end_of_deg_90-_deg_90
  2611                           	
  2612  0451                     _deg_90:	
  2613                           	opt	stack 2
  2614                           ; Regs used in _deg_90: [wreg-fsr0h+status,2+status,0+pclath+cstack]
  2615                           	line	250
  2616                           	
  2617  0451                     l1215:	
  2618                           ;PR19.c: 250: CCPR1L=190;
  2619  0451  30BE               	movlw	(0BEh)
  2620  0452  1283               	bcf	status, 5	;RP0=0, select bank0
  2621  0453  1303               	bcf	status, 6	;RP1=0, select bank0
  2622  0454  0095               	movwf	(21)	;volatile
  2623                           	line	251
  2624                           ;PR19.c: 251: CCPR2L=190;
  2625  0455  30BE               	movlw	(0BEh)
  2626  0456  009B               	movwf	(27)	;volatile
  2627                           	line	252
  2628                           ;PR19.c: 252: CCPR3L=255;
  2629  0457  30FF               	movlw	(0FFh)
  2630  0458  1683               	bsf	status, 5	;RP0=1, select bank1
  2631  0459  1303               	bcf	status, 6	;RP1=0, select bank1
  2632  045A  0095               	movwf	(149)^080h	;volatile
  2633                           	line	253
  2634                           	
  2635  045B                     l1217:	
  2636                           ;PR19.c: 253: lm_run(1);
  2637  045B  3001               	movlw	(01h)
  2638  045C  120A  118A  22CA   	fcall	_lm_run
              120A  118A         
  2639                           	line	254
  2640                           	
  2641  0461                     l1219:	
  2642                           ;PR19.c: 254: rm_run(1);
  2643  0461  3001               	movlw	(01h)
  2644  0462  120A  118A  22B3   	fcall	_rm_run
              120A  118A         
  2645                           	line	255
  2646                           	
  2647  0467                     l1221:	
  2648                           ;PR19.c: 255: bm_run(0);
  2649  0467  3000               	movlw	(0)
  2650  0468  120A  118A  229C   	fcall	_bm_run
              120A  118A         
  2651                           	line	256
  2652                           	
  2653  046D                     l1223:	
  2654                           ;PR19.c: 256: mode_display("90","Degree");
  2655  046D  3040               	movlw	((STR_10-__stringbase))&0ffh
  2656  046E  00FD               	movwf	(??_deg_90+0)+0
  2657  046F  087D               	movf	(??_deg_90+0)+0,w
  2658  0470  00FB               	movwf	(?_mode_display)
  2659  0471  3076               	movlw	((STR_9-__stringbase))&0ffh
  2660  0472  120A  118A  24CF   	fcall	_mode_display
              120A  118A         
  2661                           	line	257
  2662                           	
  2663  0477                     l147:	
  2664  0477  0008               	return
  2665                           	opt stack 0
  2666                           GLOBAL	__end_of_deg_90
  2667  0478                     	__end_of_deg_90:
  2668                           	signat	_deg_90,88
  2669                           	global	_deg_180
  2670                           
  2671 ;; *************** function _deg_180 *****************
  2672 ;; Defined at:
  2673 ;;		line 281 in file "PR19.c"
  2674 ;; Parameters:    Size  Location     Type
  2675 ;;		None
  2676 ;; Auto vars:     Size  Location     Type
  2677 ;;		None
  2678 ;; Return value:  Size  Location     Type
  2679 ;;		None               void
  2680 ;; Registers used:
  2681 ;;		wreg, fsr0l, fsr0h, status,2, status,0, pclath, cstack
  2682 ;; Tracked objects:
  2683 ;;		On entry : 0/0
  2684 ;;		On exit  : 0/0
  2685 ;;		Unchanged: 0/0
  2686 ;; Data sizes:     COMMON   BANK0   BANK1   BANK3   BANK2
  2687 ;;      Params:         0       0       0       0       0
  2688 ;;      Locals:         0       0       0       0       0
  2689 ;;      Temps:          1       0       0       0       0
  2690 ;;      Totals:         1       0       0       0       0
  2691 ;;Total ram usage:        1 bytes
  2692 ;; Hardware stack levels used:    1
  2693 ;; Hardware stack levels required when called:    4
  2694 ;; This function calls:
  2695 ;;		_lm_run
  2696 ;;		_rm_run
  2697 ;;		_mode_display
  2698 ;; This function is called by:
  2699 ;;		_alphamode
  2700 ;;		_betamode
  2701 ;; This function uses a non-reentrant model
  2702 ;;
  2703                           psect	text543,local,class=CODE,delta=2,merge=1
  2704                           global __ptext543
  2705  02FE                     __ptext543:
  2706                           psect	text543
  2707                           	file	"PR19.c"
  2708                           	line	281
  2709                           	global	__size_of_deg_180
  2710  001F                     	__size_of_deg_180	equ	__end_of_deg_180-_deg_180
  2711                           	
  2712  02FE                     _deg_180:	
  2713                           	opt	stack 2
  2714                           ; Regs used in _deg_180: [wreg-fsr0h+status,2+status,0+pclath+cstack]
  2715                           	line	282
  2716                           	
  2717  02FE                     l1225:	
  2718                           ;PR19.c: 282: CCPR1L=CCPR2L=255;
  2719  02FE  30FF               	movlw	(0FFh)
  2720  02FF  1283               	bcf	status, 5	;RP0=0, select bank0
  2721  0300  1303               	bcf	status, 6	;RP1=0, select bank0
  2722  0301  009B               	movwf	(27)	;volatile
  2723  0302  0095               	movwf	(21)	;volatile
  2724                           	line	283
  2725                           	
  2726  0303                     l1227:	
  2727                           ;PR19.c: 283: CCPR3L=0;
  2728  0303  1683               	bsf	status, 5	;RP0=1, select bank1
  2729  0304  1303               	bcf	status, 6	;RP1=0, select bank1
  2730  0305  0195               	clrf	(149)^080h	;volatile
  2731                           	line	284
  2732                           	
  2733  0306                     l1229:	
  2734                           ;PR19.c: 284: lm_run(0);
  2735  0306  3000               	movlw	(0)
  2736  0307  120A  118A  22CA   	fcall	_lm_run
              120A  118A         
  2737                           	line	285
  2738                           	
  2739  030C                     l1231:	
  2740                           ;PR19.c: 285: rm_run(1);
  2741  030C  3001               	movlw	(01h)
  2742  030D  120A  118A  22B3   	fcall	_rm_run
              120A  118A         
  2743                           	line	286
  2744                           	
  2745  0312                     l1233:	
  2746                           ;PR19.c: 286: mode_display("180","Degree");
  2747  0312  3040               	movlw	((STR_16-__stringbase))&0ffh
  2748  0313  00FD               	movwf	(??_deg_180+0)+0
  2749  0314  087D               	movf	(??_deg_180+0)+0,w
  2750  0315  00FB               	movwf	(?_mode_display)
  2751  0316  306F               	movlw	((STR_15-__stringbase))&0ffh
  2752  0317  120A  118A  24CF   	fcall	_mode_display
              120A  118A         
  2753                           	line	287
  2754                           	
  2755  031C                     l156:	
  2756  031C  0008               	return
  2757                           	opt stack 0
  2758                           GLOBAL	__end_of_deg_180
  2759  031D                     	__end_of_deg_180:
  2760                           	signat	_deg_180,88
  2761                           	global	_clockwise
  2762                           
  2763 ;; *************** function _clockwise *****************
  2764 ;; Defined at:
  2765 ;;		line 343 in file "PR19.c"
  2766 ;; Parameters:    Size  Location     Type
  2767 ;;		None
  2768 ;; Auto vars:     Size  Location     Type
  2769 ;;		None
  2770 ;; Return value:  Size  Location     Type
  2771 ;;		None               void
  2772 ;; Registers used:
  2773 ;;		wreg, fsr0l, fsr0h, status,2, status,0, pclath, cstack
  2774 ;; Tracked objects:
  2775 ;;		On entry : 0/0
  2776 ;;		On exit  : 0/0
  2777 ;;		Unchanged: 0/0
  2778 ;; Data sizes:     COMMON   BANK0   BANK1   BANK3   BANK2
  2779 ;;      Params:         0       0       0       0       0
  2780 ;;      Locals:         0       0       0       0       0
  2781 ;;      Temps:          1       0       0       0       0
  2782 ;;      Totals:         1       0       0       0       0
  2783 ;;Total ram usage:        1 bytes
  2784 ;; Hardware stack levels used:    1
  2785 ;; Hardware stack levels required when called:    4
  2786 ;; This function calls:
  2787 ;;		_lm_run
  2788 ;;		_rm_run
  2789 ;;		_bm_run
  2790 ;;		_mode_display
  2791 ;; This function is called by:
  2792 ;;		_alphamode
  2793 ;; This function uses a non-reentrant model
  2794 ;;
  2795                           psect	text544,local,class=CODE,delta=2,merge=1
  2796                           global __ptext544
  2797  0406                     __ptext544:
  2798                           psect	text544
  2799                           	file	"PR19.c"
  2800                           	line	343
  2801                           	global	__size_of_clockwise
  2802  0025                     	__size_of_clockwise	equ	__end_of_clockwise-_clockwise
  2803                           	
  2804  0406                     _clockwise:	
  2805                           	opt	stack 2
  2806                           ; Regs used in _clockwise: [wreg-fsr0h+status,2+status,0+pclath+cstack]
  2807                           	line	344
  2808                           	
  2809  0406                     l1235:	
  2810                           ;PR19.c: 344: CCPR1L=CCPR2L=CCPR3L=255;
  2811  0406  30FF               	movlw	(0FFh)
  2812  0407  1683               	bsf	status, 5	;RP0=1, select bank1
  2813  0408  1303               	bcf	status, 6	;RP1=0, select bank1
  2814  0409  0095               	movwf	(149)^080h	;volatile
  2815  040A  1283               	bcf	status, 5	;RP0=0, select bank0
  2816  040B  1303               	bcf	status, 6	;RP1=0, select bank0
  2817  040C  009B               	movwf	(27)	;volatile
  2818  040D  0095               	movwf	(21)	;volatile
  2819                           	line	345
  2820                           	
  2821  040E                     l1237:	
  2822                           ;PR19.c: 345: lm_run(1);
  2823  040E  3001               	movlw	(01h)
  2824  040F  120A  118A  22CA   	fcall	_lm_run
              120A  118A         
  2825                           	line	346
  2826                           	
  2827  0414                     l1239:	
  2828                           ;PR19.c: 346: rm_run(1);
  2829  0414  3001               	movlw	(01h)
  2830  0415  120A  118A  22B3   	fcall	_rm_run
              120A  118A         
  2831                           	line	347
  2832                           	
  2833  041A                     l1241:	
  2834                           ;PR19.c: 347: bm_run(1);
  2835  041A  3001               	movlw	(01h)
  2836  041B  120A  118A  229C   	fcall	_bm_run
              120A  118A         
  2837                           	line	348
  2838                           	
  2839  0420                     l1243:	
  2840                           ;PR19.c: 348: mode_display("Clockwise","");
  2841  0420  3056               	movlw	((STR_28-__stringbase))&0ffh
  2842  0421  00FD               	movwf	(??_clockwise+0)+0
  2843  0422  087D               	movf	(??_clockwise+0)+0,w
  2844  0423  00FB               	movwf	(?_mode_display)
  2845  0424  3036               	movlw	((STR_27-__stringbase))&0ffh
  2846  0425  120A  118A  24CF   	fcall	_mode_display
              120A  118A         
  2847                           	line	349
  2848                           	
  2849  042A                     l174:	
  2850  042A  0008               	return
  2851                           	opt stack 0
  2852                           GLOBAL	__end_of_clockwise
  2853  042B                     	__end_of_clockwise:
  2854                           	signat	_clockwise,88
  2855                           	global	_m_stop
  2856                           
  2857 ;; *************** function _m_stop *****************
  2858 ;; Defined at:
  2859 ;;		line 189 in file "PR19.c"
  2860 ;; Parameters:    Size  Location     Type
  2861 ;;		None
  2862 ;; Auto vars:     Size  Location     Type
  2863 ;;		None
  2864 ;; Return value:  Size  Location     Type
  2865 ;;		None               void
  2866 ;; Registers used:
  2867 ;;		wreg, fsr0l, fsr0h, status,2, status,0, pclath, cstack
  2868 ;; Tracked objects:
  2869 ;;		On entry : 0/0
  2870 ;;		On exit  : 0/0
  2871 ;;		Unchanged: 0/0
  2872 ;; Data sizes:     COMMON   BANK0   BANK1   BANK3   BANK2
  2873 ;;      Params:         0       0       0       0       0
  2874 ;;      Locals:         0       0       0       0       0
  2875 ;;      Temps:          1       0       0       0       0
  2876 ;;      Totals:         1       0       0       0       0
  2877 ;;Total ram usage:        1 bytes
  2878 ;; Hardware stack levels used:    1
  2879 ;; Hardware stack levels required when called:    4
  2880 ;; This function calls:
  2881 ;;		_mode_display
  2882 ;; This function is called by:
  2883 ;;		_alphamode
  2884 ;;		_betamode
  2885 ;; This function uses a non-reentrant model
  2886 ;;
  2887                           psect	text545,local,class=CODE,delta=2,merge=1
  2888                           global __ptext545
  2889  0275                     __ptext545:
  2890                           psect	text545
  2891                           	file	"PR19.c"
  2892                           	line	189
  2893                           	global	__size_of_m_stop
  2894  0013                     	__size_of_m_stop	equ	__end_of_m_stop-_m_stop
  2895                           	
  2896  0275                     _m_stop:	
  2897                           	opt	stack 2
  2898                           ; Regs used in _m_stop: [wreg-fsr0h+status,2+status,0+pclath+cstack]
  2899                           	line	190
  2900                           	
  2901  0275                     l1245:	
  2902                           ;PR19.c: 190: RC0=0;
  2903  0275  1283               	bcf	status, 5	;RP0=0, select bank0
  2904  0276  1303               	bcf	status, 6	;RP1=0, select bank0
  2905  0277  1007               	bcf	(56/8),(56)&7	;volatile
  2906                           	line	191
  2907                           ;PR19.c: 191: RC3=0;
  2908  0278  1187               	bcf	(59/8),(59)&7	;volatile
  2909                           	line	192
  2910                           ;PR19.c: 192: RC4=0;
  2911  0279  1207               	bcf	(60/8),(60)&7	;volatile
  2912                           	line	193
  2913                           ;PR19.c: 193: RC5=0;
  2914  027A  1287               	bcf	(61/8),(61)&7	;volatile
  2915                           	line	194
  2916                           ;PR19.c: 194: RB3=0;
  2917  027B  1186               	bcf	(51/8),(51)&7	;volatile
  2918                           	line	195
  2919                           ;PR19.c: 195: RB4=0;
  2920  027C  1206               	bcf	(52/8),(52)&7	;volatile
  2921                           	line	196
  2922                           	
  2923  027D                     l1247:	
  2924                           ;PR19.c: 196: mode_display("Flexibot","Stop");
  2925  027D  304E               	movlw	((STR_2-__stringbase))&0ffh
  2926  027E  00FD               	movwf	(??_m_stop+0)+0
  2927  027F  087D               	movf	(??_m_stop+0)+0,w
  2928  0280  00FB               	movwf	(?_mode_display)
  2929  0281  3008               	movlw	((STR_1-__stringbase))&0ffh
  2930  0282  120A  118A  24CF   	fcall	_mode_display
              120A  118A         
  2931                           	line	197
  2932                           	
  2933  0287                     l126:	
  2934  0287  0008               	return
  2935                           	opt stack 0
  2936                           GLOBAL	__end_of_m_stop
  2937  0288                     	__end_of_m_stop:
  2938                           	signat	_m_stop,88
  2939                           	global	_deg_330
  2940                           
  2941 ;; *************** function _deg_330 *****************
  2942 ;; Defined at:
  2943 ;;		line 333 in file "PR19.c"
  2944 ;; Parameters:    Size  Location     Type
  2945 ;;		None
  2946 ;; Auto vars:     Size  Location     Type
  2947 ;;		None
  2948 ;; Return value:  Size  Location     Type
  2949 ;;		None               void
  2950 ;; Registers used:
  2951 ;;		wreg, fsr0l, fsr0h, status,2, status,0, pclath, cstack
  2952 ;; Tracked objects:
  2953 ;;		On entry : 0/0
  2954 ;;		On exit  : 0/0
  2955 ;;		Unchanged: 0/0
  2956 ;; Data sizes:     COMMON   BANK0   BANK1   BANK3   BANK2
  2957 ;;      Params:         0       0       0       0       0
  2958 ;;      Locals:         0       0       0       0       0
  2959 ;;      Temps:          1       0       0       0       0
  2960 ;;      Totals:         1       0       0       0       0
  2961 ;;Total ram usage:        1 bytes
  2962 ;; Hardware stack levels used:    1
  2963 ;; Hardware stack levels required when called:    4
  2964 ;; This function calls:
  2965 ;;		_rm_run
  2966 ;;		_bm_run
  2967 ;;		_mode_display
  2968 ;; This function is called by:
  2969 ;;		_betamode
  2970 ;; This function uses a non-reentrant model
  2971 ;;
  2972                           psect	text546,local,class=CODE,delta=2,merge=1
  2973                           global __ptext546
  2974  039C                     __ptext546:
  2975                           psect	text546
  2976                           	file	"PR19.c"
  2977                           	line	333
  2978                           	global	__size_of_deg_330
  2979  0020                     	__size_of_deg_330	equ	__end_of_deg_330-_deg_330
  2980                           	
  2981  039C                     _deg_330:	
  2982                           	opt	stack 2
  2983                           ; Regs used in _deg_330: [wreg-fsr0h+status,2+status,0+pclath+cstack]
  2984                           	line	334
  2985                           	
  2986  039C                     l1249:	
  2987                           ;PR19.c: 334: CCPR1L=0;
  2988  039C  1283               	bcf	status, 5	;RP0=0, select bank0
  2989  039D  1303               	bcf	status, 6	;RP1=0, select bank0
  2990  039E  0195               	clrf	(21)	;volatile
  2991                           	line	335
  2992                           	
  2993  039F                     l1251:	
  2994                           ;PR19.c: 335: CCPR2L=255;
  2995  039F  30FF               	movlw	(0FFh)
  2996  03A0  009B               	movwf	(27)	;volatile
  2997                           	line	336
  2998                           	
  2999  03A1                     l1253:	
  3000                           ;PR19.c: 336: CCPR3L=255;
  3001  03A1  30FF               	movlw	(0FFh)
  3002  03A2  1683               	bsf	status, 5	;RP0=1, select bank1
  3003  03A3  1303               	bcf	status, 6	;RP1=0, select bank1
  3004  03A4  0095               	movwf	(149)^080h	;volatile
  3005                           	line	337
  3006                           	
  3007  03A5                     l1255:	
  3008                           ;PR19.c: 337: rm_run(0);
  3009  03A5  3000               	movlw	(0)
  3010  03A6  120A  118A  22B3   	fcall	_rm_run
              120A  118A         
  3011                           	line	338
  3012                           	
  3013  03AB                     l1257:	
  3014                           ;PR19.c: 338: bm_run(1);
  3015  03AB  3001               	movlw	(01h)
  3016  03AC  120A  118A  229C   	fcall	_bm_run
              120A  118A         
  3017                           	line	339
  3018                           	
  3019  03B1                     l1259:	
  3020                           ;PR19.c: 339: mode_display("330","Degree");
  3021  03B1  3040               	movlw	((STR_26-__stringbase))&0ffh
  3022  03B2  00FD               	movwf	(??_deg_330+0)+0
  3023  03B3  087D               	movf	(??_deg_330+0)+0,w
  3024  03B4  00FB               	movwf	(?_mode_display)
  3025  03B5  305F               	movlw	((STR_25-__stringbase))&0ffh
  3026  03B6  120A  118A  24CF   	fcall	_mode_display
              120A  118A         
  3027                           	line	340
  3028                           	
  3029  03BB                     l171:	
  3030  03BB  0008               	return
  3031                           	opt stack 0
  3032                           GLOBAL	__end_of_deg_330
  3033  03BC                     	__end_of_deg_330:
  3034                           	signat	_deg_330,88
  3035                           	global	_deg_30
  3036                           
  3037 ;; *************** function _deg_30 *****************
  3038 ;; Defined at:
  3039 ;;		line 228 in file "PR19.c"
  3040 ;; Parameters:    Size  Location     Type
  3041 ;;		None
  3042 ;; Auto vars:     Size  Location     Type
  3043 ;;		None
  3044 ;; Return value:  Size  Location     Type
  3045 ;;		None               void
  3046 ;; Registers used:
  3047 ;;		wreg, fsr0l, fsr0h, status,2, status,0, pclath, cstack
  3048 ;; Tracked objects:
  3049 ;;		On entry : 0/0
  3050 ;;		On exit  : 0/0
  3051 ;;		Unchanged: 0/0
  3052 ;; Data sizes:     COMMON   BANK0   BANK1   BANK3   BANK2
  3053 ;;      Params:         0       0       0       0       0
  3054 ;;      Locals:         0       0       0       0       0
  3055 ;;      Temps:          1       0       0       0       0
  3056 ;;      Totals:         1       0       0       0       0
  3057 ;;Total ram usage:        1 bytes
  3058 ;; Hardware stack levels used:    1
  3059 ;; Hardware stack levels required when called:    4
  3060 ;; This function calls:
  3061 ;;		_lm_run
  3062 ;;		_bm_run
  3063 ;;		_mode_display
  3064 ;; This function is called by:
  3065 ;;		_betamode
  3066 ;; This function uses a non-reentrant model
  3067 ;;
  3068                           psect	text547,local,class=CODE,delta=2,merge=1
  3069                           global __ptext547
  3070  037C                     __ptext547:
  3071                           psect	text547
  3072                           	file	"PR19.c"
  3073                           	line	228
  3074                           	global	__size_of_deg_30
  3075  0020                     	__size_of_deg_30	equ	__end_of_deg_30-_deg_30
  3076                           	
  3077  037C                     _deg_30:	
  3078                           	opt	stack 2
  3079                           ; Regs used in _deg_30: [wreg-fsr0h+status,2+status,0+pclath+cstack]
  3080                           	line	229
  3081                           	
  3082  037C                     l1261:	
  3083                           ;PR19.c: 229: CCPR1L=255;
  3084  037C  30FF               	movlw	(0FFh)
  3085  037D  1283               	bcf	status, 5	;RP0=0, select bank0
  3086  037E  1303               	bcf	status, 6	;RP1=0, select bank0
  3087  037F  0095               	movwf	(21)	;volatile
  3088                           	line	230
  3089                           	
  3090  0380                     l1263:	
  3091                           ;PR19.c: 230: CCPR2L=0;
  3092  0380  019B               	clrf	(27)	;volatile
  3093                           	line	231
  3094                           	
  3095  0381                     l1265:	
  3096                           ;PR19.c: 231: CCPR3L=255;
  3097  0381  30FF               	movlw	(0FFh)
  3098  0382  1683               	bsf	status, 5	;RP0=1, select bank1
  3099  0383  1303               	bcf	status, 6	;RP1=0, select bank1
  3100  0384  0095               	movwf	(149)^080h	;volatile
  3101                           	line	232
  3102                           	
  3103  0385                     l1267:	
  3104                           ;PR19.c: 232: lm_run(1);
  3105  0385  3001               	movlw	(01h)
  3106  0386  120A  118A  22CA   	fcall	_lm_run
              120A  118A         
  3107                           	line	233
  3108                           	
  3109  038B                     l1269:	
  3110                           ;PR19.c: 233: bm_run(0);
  3111  038B  3000               	movlw	(0)
  3112  038C  120A  118A  229C   	fcall	_bm_run
              120A  118A         
  3113                           	line	234
  3114                           	
  3115  0391                     l1271:	
  3116                           ;PR19.c: 234: mode_display("30","Degree");
  3117  0391  3040               	movlw	((STR_6-__stringbase))&0ffh
  3118  0392  00FD               	movwf	(??_deg_30+0)+0
  3119  0393  087D               	movf	(??_deg_30+0)+0,w
  3120  0394  00FB               	movwf	(?_mode_display)
  3121  0395  3060               	movlw	((STR_5-__stringbase))&0ffh
  3122  0396  120A  118A  24CF   	fcall	_mode_display
              120A  118A         
  3123                           	line	235
  3124                           	
  3125  039B                     l141:	
  3126  039B  0008               	return
  3127                           	opt stack 0
  3128                           GLOBAL	__end_of_deg_30
  3129  039C                     	__end_of_deg_30:
  3130                           	signat	_deg_30,88
  3131                           	global	_deg_150
  3132                           
  3133 ;; *************** function _deg_150 *****************
  3134 ;; Defined at:
  3135 ;;		line 271 in file "PR19.c"
  3136 ;; Parameters:    Size  Location     Type
  3137 ;;		None
  3138 ;; Auto vars:     Size  Location     Type
  3139 ;;		None
  3140 ;; Return value:  Size  Location     Type
  3141 ;;		None               void
  3142 ;; Registers used:
  3143 ;;		wreg, fsr0l, fsr0h, status,2, status,0, pclath, cstack
  3144 ;; Tracked objects:
  3145 ;;		On entry : 0/0
  3146 ;;		On exit  : 0/0
  3147 ;;		Unchanged: 0/0
  3148 ;; Data sizes:     COMMON   BANK0   BANK1   BANK3   BANK2
  3149 ;;      Params:         0       0       0       0       0
  3150 ;;      Locals:         0       0       0       0       0
  3151 ;;      Temps:          1       0       0       0       0
  3152 ;;      Totals:         1       0       0       0       0
  3153 ;;Total ram usage:        1 bytes
  3154 ;; Hardware stack levels used:    1
  3155 ;; Hardware stack levels required when called:    4
  3156 ;; This function calls:
  3157 ;;		_rm_run
  3158 ;;		_bm_run
  3159 ;;		_mode_display
  3160 ;; This function is called by:
  3161 ;;		_betamode
  3162 ;; This function uses a non-reentrant model
  3163 ;;
  3164                           psect	text548,local,class=CODE,delta=2,merge=1
  3165                           global __ptext548
  3166  035C                     __ptext548:
  3167                           psect	text548
  3168                           	file	"PR19.c"
  3169                           	line	271
  3170                           	global	__size_of_deg_150
  3171  0020                     	__size_of_deg_150	equ	__end_of_deg_150-_deg_150
  3172                           	
  3173  035C                     _deg_150:	
  3174                           	opt	stack 2
  3175                           ; Regs used in _deg_150: [wreg-fsr0h+status,2+status,0+pclath+cstack]
  3176                           	line	272
  3177                           	
  3178  035C                     l1273:	
  3179                           ;PR19.c: 272: CCPR1L=0;
  3180  035C  1283               	bcf	status, 5	;RP0=0, select bank0
  3181  035D  1303               	bcf	status, 6	;RP1=0, select bank0
  3182  035E  0195               	clrf	(21)	;volatile
  3183                           	line	273
  3184                           	
  3185  035F                     l1275:	
  3186                           ;PR19.c: 273: CCPR2L=255;
  3187  035F  30FF               	movlw	(0FFh)
  3188  0360  009B               	movwf	(27)	;volatile
  3189                           	line	274
  3190                           	
  3191  0361                     l1277:	
  3192                           ;PR19.c: 274: CCPR3L=255;
  3193  0361  30FF               	movlw	(0FFh)
  3194  0362  1683               	bsf	status, 5	;RP0=1, select bank1
  3195  0363  1303               	bcf	status, 6	;RP1=0, select bank1
  3196  0364  0095               	movwf	(149)^080h	;volatile
  3197                           	line	275
  3198                           	
  3199  0365                     l1279:	
  3200                           ;PR19.c: 275: rm_run(1);
  3201  0365  3001               	movlw	(01h)
  3202  0366  120A  118A  22B3   	fcall	_rm_run
              120A  118A         
  3203                           	line	276
  3204                           	
  3205  036B                     l1281:	
  3206                           ;PR19.c: 276: bm_run(0);
  3207  036B  3000               	movlw	(0)
  3208  036C  120A  118A  229C   	fcall	_bm_run
              120A  118A         
  3209                           	line	277
  3210                           	
  3211  0371                     l1283:	
  3212                           ;PR19.c: 277: mode_display("150","Degree");
  3213  0371  3040               	movlw	((STR_14-__stringbase))&0ffh
  3214  0372  00FD               	movwf	(??_deg_150+0)+0
  3215  0373  087D               	movf	(??_deg_150+0)+0,w
  3216  0374  00FB               	movwf	(?_mode_display)
  3217  0375  3067               	movlw	((STR_13-__stringbase))&0ffh
  3218  0376  120A  118A  24CF   	fcall	_mode_display
              120A  118A         
  3219                           	line	278
  3220                           	
  3221  037B                     l153:	
  3222  037B  0008               	return
  3223                           	opt stack 0
  3224                           GLOBAL	__end_of_deg_150
  3225  037C                     	__end_of_deg_150:
  3226                           	signat	_deg_150,88
  3227                           	global	_deg_210
  3228                           
  3229 ;; *************** function _deg_210 *****************
  3230 ;; Defined at:
  3231 ;;		line 290 in file "PR19.c"
  3232 ;; Parameters:    Size  Location     Type
  3233 ;;		None
  3234 ;; Auto vars:     Size  Location     Type
  3235 ;;		None
  3236 ;; Return value:  Size  Location     Type
  3237 ;;		None               void
  3238 ;; Registers used:
  3239 ;;		wreg, fsr0l, fsr0h, status,2, status,0, pclath, cstack
  3240 ;; Tracked objects:
  3241 ;;		On entry : 0/0
  3242 ;;		On exit  : 0/0
  3243 ;;		Unchanged: 0/0
  3244 ;; Data sizes:     COMMON   BANK0   BANK1   BANK3   BANK2
  3245 ;;      Params:         0       0       0       0       0
  3246 ;;      Locals:         0       0       0       0       0
  3247 ;;      Temps:          1       0       0       0       0
  3248 ;;      Totals:         1       0       0       0       0
  3249 ;;Total ram usage:        1 bytes
  3250 ;; Hardware stack levels used:    1
  3251 ;; Hardware stack levels required when called:    4
  3252 ;; This function calls:
  3253 ;;		_lm_run
  3254 ;;		_bm_run
  3255 ;;		_mode_display
  3256 ;; This function is called by:
  3257 ;;		_betamode
  3258 ;; This function uses a non-reentrant model
  3259 ;;
  3260                           psect	text549,local,class=CODE,delta=2,merge=1
  3261                           global __ptext549
  3262  033C                     __ptext549:
  3263                           psect	text549
  3264                           	file	"PR19.c"
  3265                           	line	290
  3266                           	global	__size_of_deg_210
  3267  0020                     	__size_of_deg_210	equ	__end_of_deg_210-_deg_210
  3268                           	
  3269  033C                     _deg_210:	
  3270                           	opt	stack 2
  3271                           ; Regs used in _deg_210: [wreg-fsr0h+status,2+status,0+pclath+cstack]
  3272                           	line	291
  3273                           	
  3274  033C                     l1285:	
  3275                           ;PR19.c: 291: CCPR1L=255;
  3276  033C  30FF               	movlw	(0FFh)
  3277  033D  1283               	bcf	status, 5	;RP0=0, select bank0
  3278  033E  1303               	bcf	status, 6	;RP1=0, select bank0
  3279  033F  0095               	movwf	(21)	;volatile
  3280                           	line	292
  3281                           	
  3282  0340                     l1287:	
  3283                           ;PR19.c: 292: CCPR2L=0;
  3284  0340  019B               	clrf	(27)	;volatile
  3285                           	line	293
  3286                           	
  3287  0341                     l1289:	
  3288                           ;PR19.c: 293: CCPR3L=255;
  3289  0341  30FF               	movlw	(0FFh)
  3290  0342  1683               	bsf	status, 5	;RP0=1, select bank1
  3291  0343  1303               	bcf	status, 6	;RP1=0, select bank1
  3292  0344  0095               	movwf	(149)^080h	;volatile
  3293                           	line	294
  3294                           	
  3295  0345                     l1291:	
  3296                           ;PR19.c: 294: lm_run(0);
  3297  0345  3000               	movlw	(0)
  3298  0346  120A  118A  22CA   	fcall	_lm_run
              120A  118A         
  3299                           	line	295
  3300                           	
  3301  034B                     l1293:	
  3302                           ;PR19.c: 295: bm_run(1);
  3303  034B  3001               	movlw	(01h)
  3304  034C  120A  118A  229C   	fcall	_bm_run
              120A  118A         
  3305                           	line	296
  3306                           	
  3307  0351                     l1295:	
  3308                           ;PR19.c: 296: mode_display("210","Degree");
  3309  0351  3040               	movlw	((STR_18-__stringbase))&0ffh
  3310  0352  00FD               	movwf	(??_deg_210+0)+0
  3311  0353  087D               	movf	(??_deg_210+0)+0,w
  3312  0354  00FB               	movwf	(?_mode_display)
  3313  0355  3057               	movlw	((STR_17-__stringbase))&0ffh
  3314  0356  120A  118A  24CF   	fcall	_mode_display
              120A  118A         
  3315                           	line	297
  3316                           	
  3317  035B                     l159:	
  3318  035B  0008               	return
  3319                           	opt stack 0
  3320                           GLOBAL	__end_of_deg_210
  3321  035C                     	__end_of_deg_210:
  3322                           	signat	_deg_210,88
  3323                           	global	_mode_display
  3324                           
  3325 ;; *************** function _mode_display *****************
  3326 ;; Defined at:
  3327 ;;		line 474 in file "PR19.c"
  3328 ;; Parameters:    Size  Location     Type
  3329 ;;  x               1    wreg     PTR const unsigned char 
  3330 ;;		 -> STR_29(14), STR_27(10), STR_25(4), STR_23(4), 
  3331 ;;		 -> STR_21(4), STR_19(4), STR_17(4), STR_15(4), 
  3332 ;;		 -> STR_13(4), STR_11(4), STR_9(3), STR_7(3), 
  3333 ;;		 -> STR_5(3), STR_3(2), STR_1(9), 
  3334 ;;  y               1   11[COMMON] PTR const unsigned char 
  3335 ;;		 -> STR_30(1), STR_28(1), STR_26(7), STR_24(7), 
  3336 ;;		 -> STR_22(7), STR_20(7), STR_18(7), STR_16(7), 
  3337 ;;		 -> STR_14(7), STR_12(7), STR_10(7), STR_8(7), 
  3338 ;;		 -> STR_6(7), STR_4(7), STR_2(5), 
  3339 ;; Auto vars:     Size  Location     Type
  3340 ;;  x               1   12[COMMON] PTR const unsigned char 
  3341 ;;		 -> STR_29(14), STR_27(10), STR_25(4), STR_23(4), 
  3342 ;;		 -> STR_21(4), STR_19(4), STR_17(4), STR_15(4), 
  3343 ;;		 -> STR_13(4), STR_11(4), STR_9(3), STR_7(3), 
  3344 ;;		 -> STR_5(3), STR_3(2), STR_1(9), 
  3345 ;; Return value:  Size  Location     Type
  3346 ;;		None               void
  3347 ;; Registers used:
  3348 ;;		wreg, fsr0l, fsr0h, status,2, status,0, pclath, cstack
  3349 ;; Tracked objects:
  3350 ;;		On entry : 0/0
  3351 ;;		On exit  : 0/0
  3352 ;;		Unchanged: 0/0
  3353 ;; Data sizes:     COMMON   BANK0   BANK1   BANK3   BANK2
  3354 ;;      Params:         1       0       0       0       0
  3355 ;;      Locals:         1       0       0       0       0
  3356 ;;      Temps:          0       0       0       0       0
  3357 ;;      Totals:         2       0       0       0       0
  3358 ;;Total ram usage:        2 bytes
  3359 ;; Hardware stack levels used:    1
  3360 ;; Hardware stack levels required when called:    3
  3361 ;; This function calls:
  3362 ;;		_lcd_clr
  3363 ;;		_lcd_goto
  3364 ;;		_send_string
  3365 ;;		_delay
  3366 ;; This function is called by:
  3367 ;;		_m_stop
  3368 ;;		_deg_0
  3369 ;;		_deg_30
  3370 ;;		_deg_90
  3371 ;;		_deg_150
  3372 ;;		_deg_180
  3373 ;;		_deg_210
  3374 ;;		_deg_270
  3375 ;;		_deg_330
  3376 ;;		_clockwise
  3377 ;;		_deg_60
  3378 ;;		_deg_120
  3379 ;;		_deg_240
  3380 ;;		_deg_300
  3381 ;;		_anticlockwise
  3382 ;; This function uses a non-reentrant model
  3383 ;;
  3384                           psect	text550,local,class=CODE,delta=2,merge=1
  3385                           global __ptext550
  3386  04CF                     __ptext550:
  3387                           psect	text550
  3388                           	file	"PR19.c"
  3389                           	line	474
  3390                           	global	__size_of_mode_display
  3391  0035                     	__size_of_mode_display	equ	__end_of_mode_display-_mode_display
  3392                           	
  3393  04CF                     _mode_display:	
  3394                           	opt	stack 2
  3395                           ; Regs used in _mode_display: [wreg-fsr0h+status,2+status,0+pclath+cstack]
  3396                           ;mode_display@x stored from wreg
  3397  04CF  00FC               	movwf	(mode_display@x)
  3398                           	line	475
  3399                           	
  3400  04D0                     l1183:	
  3401                           ;PR19.c: 475: RA3=0;
  3402  04D0  1283               	bcf	status, 5	;RP0=0, select bank0
  3403  04D1  1303               	bcf	status, 6	;RP1=0, select bank0
  3404  04D2  1185               	bcf	(43/8),(43)&7	;volatile
  3405                           	line	476
  3406                           ;PR19.c: 476: if(RA0 == 0)return;
  3407  04D3  1805               	btfsc	(40/8),(40)&7	;volatile
  3408  04D4  2CD6               	goto	u691
  3409  04D5  2CD7               	goto	u690
  3410  04D6                     u691:
  3411  04D6  2CD9               	goto	l1187
  3412  04D7                     u690:
  3413  04D7  2D03               	goto	l236
  3414                           	
  3415  04D8                     l1185:	
  3416  04D8  2D03               	goto	l236
  3417                           	
  3418  04D9                     l235:	
  3419                           	line	477
  3420                           	
  3421  04D9                     l1187:	
  3422                           ;PR19.c: 477: lcd_clr();
  3423  04D9  120A  118A  2288   	fcall	_lcd_clr
              120A  118A         
  3424                           	line	478
  3425                           ;PR19.c: 478: lcd_goto(0);
  3426  04DE  3000               	movlw	(0)
  3427  04DF  120A  118A  22E1   	fcall	_lcd_goto
              120A  118A         
  3428                           	line	479
  3429                           	
  3430  04E4                     l1189:	
  3431                           ;PR19.c: 479: send_string(x);
  3432  04E4  087C               	movf	(mode_display@x),w
  3433  04E5  120A  118A  242B   	fcall	_send_string
              120A  118A         
  3434                           	line	480
  3435                           	
  3436  04EA                     l1191:	
  3437                           ;PR19.c: 480: lcd_goto(20);
  3438  04EA  3014               	movlw	(014h)
  3439  04EB  120A  118A  22E1   	fcall	_lcd_goto
              120A  118A         
  3440                           	line	481
  3441                           ;PR19.c: 481: send_string(y);
  3442  04F0  087B               	movf	(mode_display@y),w
  3443  04F1  120A  118A  242B   	fcall	_send_string
              120A  118A         
  3444                           	line	482
  3445                           	
  3446  04F6                     l1193:	
  3447                           ;PR19.c: 482: delay(10000);
  3448  04F6  3000               	movlw	0
  3449  04F7  00F3               	movwf	(?_delay+3)
  3450  04F8  3000               	movlw	0
  3451  04F9  00F2               	movwf	(?_delay+2)
  3452  04FA  3027               	movlw	027h
  3453  04FB  00F1               	movwf	(?_delay+1)
  3454  04FC  3010               	movlw	010h
  3455  04FD  00F0               	movwf	(?_delay)
  3456                           
  3457  04FE  120A  118A  249F   	fcall	_delay
              120A  118A         
  3458                           	line	483
  3459                           	
  3460  0503                     l236:	
  3461  0503  0008               	return
  3462                           	opt stack 0
  3463                           GLOBAL	__end_of_mode_display
  3464  0504                     	__end_of_mode_display:
  3465                           	signat	_mode_display,8312
  3466                           	global	_lm_run
  3467                           
  3468 ;; *************** function _lm_run *****************
  3469 ;; Defined at:
  3470 ;;		line 200 in file "PR19.c"
  3471 ;; Parameters:    Size  Location     Type
  3472 ;;  dir             1    wreg     unsigned char 
  3473 ;; Auto vars:     Size  Location     Type
  3474 ;;  dir             1    0[COMMON] unsigned char 
  3475 ;; Return value:  Size  Location     Type
  3476 ;;		None               void
  3477 ;; Registers used:
  3478 ;;		wreg
  3479 ;; Tracked objects:
  3480 ;;		On entry : 0/0
  3481 ;;		On exit  : 0/0
  3482 ;;		Unchanged: 0/0
  3483 ;; Data sizes:     COMMON   BANK0   BANK1   BANK3   BANK2
  3484 ;;      Params:         0       0       0       0       0
  3485 ;;      Locals:         1       0       0       0       0
  3486 ;;      Temps:          0       0       0       0       0
  3487 ;;      Totals:         1       0       0       0       0
  3488 ;;Total ram usage:        1 bytes
  3489 ;; Hardware stack levels used:    1
  3490 ;; This function calls:
  3491 ;;		Nothing
  3492 ;; This function is called by:
  3493 ;;		_deg_0
  3494 ;;		_deg_30
  3495 ;;		_deg_90
  3496 ;;		_deg_180
  3497 ;;		_deg_210
  3498 ;;		_deg_270
  3499 ;;		_clockwise
  3500 ;;		_deg_60
  3501 ;;		_deg_120
  3502 ;;		_deg_240
  3503 ;;		_deg_300
  3504 ;;		_anticlockwise
  3505 ;; This function uses a non-reentrant model
  3506 ;;
  3507                           psect	text551,local,class=CODE,delta=2,merge=1
  3508                           global __ptext551
  3509  02CA                     __ptext551:
  3510                           psect	text551
  3511                           	file	"PR19.c"
  3512                           	line	200
  3513                           	global	__size_of_lm_run
  3514  0017                     	__size_of_lm_run	equ	__end_of_lm_run-_lm_run
  3515                           	
  3516  02CA                     _lm_run:	
  3517                           	opt	stack 5
  3518                           ; Regs used in _lm_run: [wreg]
  3519                           ;lm_run@dir stored from wreg
  3520  02CA  00F0               	movwf	(lm_run@dir)
  3521                           	line	201
  3522                           	
  3523  02CB                     l1019:	
  3524                           ;PR19.c: 201: RC0=dir;
  3525  02CB  1870               	btfsc	(lm_run@dir),0
  3526  02CC  2ACE               	goto	u421
  3527  02CD  2AD2               	goto	u420
  3528                           	
  3529  02CE                     u421:
  3530  02CE  1283               	bcf	status, 5	;RP0=0, select bank0
  3531  02CF  1303               	bcf	status, 6	;RP1=0, select bank0
  3532  02D0  1407               	bsf	(56/8),(56)&7	;volatile
  3533  02D1  2AD5               	goto	u434
  3534  02D2                     u420:
  3535  02D2  1283               	bcf	status, 5	;RP0=0, select bank0
  3536  02D3  1303               	bcf	status, 6	;RP1=0, select bank0
  3537  02D4  1007               	bcf	(56/8),(56)&7	;volatile
  3538  02D5                     u434:
  3539                           	line	202
  3540                           ;PR19.c: 202: RC3=!dir;
  3541  02D5  08F0               	movf	(lm_run@dir)
  3542  02D6  1903               	skipnz
  3543  02D7  2AD9               	goto	u441
  3544  02D8  2ADD               	goto	u440
  3545                           	
  3546  02D9                     u441:
  3547  02D9  1283               	bcf	status, 5	;RP0=0, select bank0
  3548  02DA  1303               	bcf	status, 6	;RP1=0, select bank0
  3549  02DB  1587               	bsf	(59/8),(59)&7	;volatile
  3550  02DC  2AE0               	goto	u454
  3551  02DD                     u440:
  3552  02DD  1283               	bcf	status, 5	;RP0=0, select bank0
  3553  02DE  1303               	bcf	status, 6	;RP1=0, select bank0
  3554  02DF  1187               	bcf	(59/8),(59)&7	;volatile
  3555  02E0                     u454:
  3556                           	line	203
  3557                           	
  3558  02E0                     l129:	
  3559  02E0  0008               	return
  3560                           	opt stack 0
  3561                           GLOBAL	__end_of_lm_run
  3562  02E1                     	__end_of_lm_run:
  3563                           	signat	_lm_run,4216
  3564                           	global	_rm_run
  3565                           
  3566 ;; *************** function _rm_run *****************
  3567 ;; Defined at:
  3568 ;;		line 206 in file "PR19.c"
  3569 ;; Parameters:    Size  Location     Type
  3570 ;;  dir             1    wreg     unsigned char 
  3571 ;; Auto vars:     Size  Location     Type
  3572 ;;  dir             1    0[COMMON] unsigned char 
  3573 ;; Return value:  Size  Location     Type
  3574 ;;		None               void
  3575 ;; Registers used:
  3576 ;;		wreg
  3577 ;; Tracked objects:
  3578 ;;		On entry : 0/0
  3579 ;;		On exit  : 0/0
  3580 ;;		Unchanged: 0/0
  3581 ;; Data sizes:     COMMON   BANK0   BANK1   BANK3   BANK2
  3582 ;;      Params:         0       0       0       0       0
  3583 ;;      Locals:         1       0       0       0       0
  3584 ;;      Temps:          0       0       0       0       0
  3585 ;;      Totals:         1       0       0       0       0
  3586 ;;Total ram usage:        1 bytes
  3587 ;; Hardware stack levels used:    1
  3588 ;; This function calls:
  3589 ;;		Nothing
  3590 ;; This function is called by:
  3591 ;;		_deg_0
  3592 ;;		_deg_90
  3593 ;;		_deg_150
  3594 ;;		_deg_180
  3595 ;;		_deg_270
  3596 ;;		_deg_330
  3597 ;;		_clockwise
  3598 ;;		_deg_60
  3599 ;;		_deg_120
  3600 ;;		_deg_240
  3601 ;;		_deg_300
  3602 ;;		_anticlockwise
  3603 ;; This function uses a non-reentrant model
  3604 ;;
  3605                           psect	text552,local,class=CODE,delta=2,merge=1
  3606                           global __ptext552
  3607  02B3                     __ptext552:
  3608                           psect	text552
  3609                           	file	"PR19.c"
  3610                           	line	206
  3611                           	global	__size_of_rm_run
  3612  0017                     	__size_of_rm_run	equ	__end_of_rm_run-_rm_run
  3613                           	
  3614  02B3                     _rm_run:	
  3615                           	opt	stack 5
  3616                           ; Regs used in _rm_run: [wreg]
  3617                           ;rm_run@dir stored from wreg
  3618  02B3  00F0               	movwf	(rm_run@dir)
  3619                           	line	207
  3620                           	
  3621  02B4                     l1021:	
  3622                           ;PR19.c: 207: RC4=dir;
  3623  02B4  1870               	btfsc	(rm_run@dir),0
  3624  02B5  2AB7               	goto	u461
  3625  02B6  2ABB               	goto	u460
  3626                           	
  3627  02B7                     u461:
  3628  02B7  1283               	bcf	status, 5	;RP0=0, select bank0
  3629  02B8  1303               	bcf	status, 6	;RP1=0, select bank0
  3630  02B9  1607               	bsf	(60/8),(60)&7	;volatile
  3631  02BA  2ABE               	goto	u474
  3632  02BB                     u460:
  3633  02BB  1283               	bcf	status, 5	;RP0=0, select bank0
  3634  02BC  1303               	bcf	status, 6	;RP1=0, select bank0
  3635  02BD  1207               	bcf	(60/8),(60)&7	;volatile
  3636  02BE                     u474:
  3637                           	line	208
  3638                           ;PR19.c: 208: RC5=!dir;
  3639  02BE  08F0               	movf	(rm_run@dir)
  3640  02BF  1903               	skipnz
  3641  02C0  2AC2               	goto	u481
  3642  02C1  2AC6               	goto	u480
  3643                           	
  3644  02C2                     u481:
  3645  02C2  1283               	bcf	status, 5	;RP0=0, select bank0
  3646  02C3  1303               	bcf	status, 6	;RP1=0, select bank0
  3647  02C4  1687               	bsf	(61/8),(61)&7	;volatile
  3648  02C5  2AC9               	goto	u494
  3649  02C6                     u480:
  3650  02C6  1283               	bcf	status, 5	;RP0=0, select bank0
  3651  02C7  1303               	bcf	status, 6	;RP1=0, select bank0
  3652  02C8  1287               	bcf	(61/8),(61)&7	;volatile
  3653  02C9                     u494:
  3654                           	line	209
  3655                           	
  3656  02C9                     l132:	
  3657  02C9  0008               	return
  3658                           	opt stack 0
  3659                           GLOBAL	__end_of_rm_run
  3660  02CA                     	__end_of_rm_run:
  3661                           	signat	_rm_run,4216
  3662                           	global	_bm_run
  3663                           
  3664 ;; *************** function _bm_run *****************
  3665 ;; Defined at:
  3666 ;;		line 212 in file "PR19.c"
  3667 ;; Parameters:    Size  Location     Type
  3668 ;;  dir             1    wreg     unsigned char 
  3669 ;; Auto vars:     Size  Location     Type
  3670 ;;  dir             1    0[COMMON] unsigned char 
  3671 ;; Return value:  Size  Location     Type
  3672 ;;		None               void
  3673 ;; Registers used:
  3674 ;;		wreg
  3675 ;; Tracked objects:
  3676 ;;		On entry : 0/0
  3677 ;;		On exit  : 0/0
  3678 ;;		Unchanged: 0/0
  3679 ;; Data sizes:     COMMON   BANK0   BANK1   BANK3   BANK2
  3680 ;;      Params:         0       0       0       0       0
  3681 ;;      Locals:         1       0       0       0       0
  3682 ;;      Temps:          0       0       0       0       0
  3683 ;;      Totals:         1       0       0       0       0
  3684 ;;Total ram usage:        1 bytes
  3685 ;; Hardware stack levels used:    1
  3686 ;; This function calls:
  3687 ;;		Nothing
  3688 ;; This function is called by:
  3689 ;;		_deg_30
  3690 ;;		_deg_90
  3691 ;;		_deg_150
  3692 ;;		_deg_210
  3693 ;;		_deg_270
  3694 ;;		_deg_330
  3695 ;;		_clockwise
  3696 ;;		_deg_60
  3697 ;;		_deg_120
  3698 ;;		_deg_240
  3699 ;;		_deg_300
  3700 ;;		_anticlockwise
  3701 ;; This function uses a non-reentrant model
  3702 ;;
  3703                           psect	text553,local,class=CODE,delta=2,merge=1
  3704                           global __ptext553
  3705  029C                     __ptext553:
  3706                           psect	text553
  3707                           	file	"PR19.c"
  3708                           	line	212
  3709                           	global	__size_of_bm_run
  3710  0017                     	__size_of_bm_run	equ	__end_of_bm_run-_bm_run
  3711                           	
  3712  029C                     _bm_run:	
  3713                           	opt	stack 5
  3714                           ; Regs used in _bm_run: [wreg]
  3715                           ;bm_run@dir stored from wreg
  3716  029C  00F0               	movwf	(bm_run@dir)
  3717                           	line	213
  3718                           	
  3719  029D                     l1023:	
  3720                           ;PR19.c: 213: RB3=!dir;
  3721  029D  08F0               	movf	(bm_run@dir)
  3722  029E  1903               	skipnz
  3723  029F  2AA1               	goto	u501
  3724  02A0  2AA5               	goto	u500
  3725                           	
  3726  02A1                     u501:
  3727  02A1  1283               	bcf	status, 5	;RP0=0, select bank0
  3728  02A2  1303               	bcf	status, 6	;RP1=0, select bank0
  3729  02A3  1586               	bsf	(51/8),(51)&7	;volatile
  3730  02A4  2AA8               	goto	u514
  3731  02A5                     u500:
  3732  02A5  1283               	bcf	status, 5	;RP0=0, select bank0
  3733  02A6  1303               	bcf	status, 6	;RP1=0, select bank0
  3734  02A7  1186               	bcf	(51/8),(51)&7	;volatile
  3735  02A8                     u514:
  3736                           	line	214
  3737                           ;PR19.c: 214: RB4=dir;
  3738  02A8  1870               	btfsc	(bm_run@dir),0
  3739  02A9  2AAB               	goto	u521
  3740  02AA  2AAF               	goto	u520
  3741                           	
  3742  02AB                     u521:
  3743  02AB  1283               	bcf	status, 5	;RP0=0, select bank0
  3744  02AC  1303               	bcf	status, 6	;RP1=0, select bank0
  3745  02AD  1606               	bsf	(52/8),(52)&7	;volatile
  3746  02AE  2AB2               	goto	u534
  3747  02AF                     u520:
  3748  02AF  1283               	bcf	status, 5	;RP0=0, select bank0
  3749  02B0  1303               	bcf	status, 6	;RP1=0, select bank0
  3750  02B1  1206               	bcf	(52/8),(52)&7	;volatile
  3751  02B2                     u534:
  3752                           	line	215
  3753                           	
  3754  02B2                     l135:	
  3755  02B2  0008               	return
  3756                           	opt stack 0
  3757                           GLOBAL	__end_of_bm_run
  3758  02B3                     	__end_of_bm_run:
  3759                           	signat	_bm_run,4216
  3760                           	global	_lcd_goto
  3761                           
  3762 ;; *************** function _lcd_goto *****************
  3763 ;; Defined at:
  3764 ;;		line 391 in file "PR19.c"
  3765 ;; Parameters:    Size  Location     Type
  3766 ;;  data            1    wreg     unsigned char 
  3767 ;; Auto vars:     Size  Location     Type
  3768 ;;  data            1   10[COMMON] unsigned char 
  3769 ;; Return value:  Size  Location     Type
  3770 ;;		None               void
  3771 ;; Registers used:
  3772 ;;		wreg, status,2, status,0, pclath, cstack
  3773 ;; Tracked objects:
  3774 ;;		On entry : 0/0
  3775 ;;		On exit  : 0/0
  3776 ;;		Unchanged: 0/0
  3777 ;; Data sizes:     COMMON   BANK0   BANK1   BANK3   BANK2
  3778 ;;      Params:         0       0       0       0       0
  3779 ;;      Locals:         1       0       0       0       0
  3780 ;;      Temps:          1       0       0       0       0
  3781 ;;      Totals:         2       0       0       0       0
  3782 ;;Total ram usage:        2 bytes
  3783 ;; Hardware stack levels used:    1
  3784 ;; Hardware stack levels required when called:    2
  3785 ;; This function calls:
  3786 ;;		_send_config
  3787 ;; This function is called by:
  3788 ;;		_shift_display
  3789 ;;		_mode_display
  3790 ;; This function uses a non-reentrant model
  3791 ;;
  3792                           psect	text554,local,class=CODE,delta=2,merge=1
  3793                           global __ptext554
  3794  02E1                     __ptext554:
  3795                           psect	text554
  3796                           	file	"PR19.c"
  3797                           	line	391
  3798                           	global	__size_of_lcd_goto
  3799  001D                     	__size_of_lcd_goto	equ	__end_of_lcd_goto-_lcd_goto
  3800                           	
  3801  02E1                     _lcd_goto:	
  3802                           	opt	stack 4
  3803                           ; Regs used in _lcd_goto: [wreg+status,2+status,0+pclath+cstack]
  3804                           ;lcd_goto@data stored from wreg
  3805  02E1  00FA               	movwf	(lcd_goto@data)
  3806                           	line	392
  3807                           	
  3808  02E2                     l1099:	
  3809                           ;PR19.c: 392: if(data<16)
  3810  02E2  3010               	movlw	(010h)
  3811  02E3  027A               	subwf	(lcd_goto@data),w
  3812  02E4  1803               	skipnc
  3813  02E5  2AE7               	goto	u541
  3814  02E6  2AE8               	goto	u540
  3815  02E7                     u541:
  3816  02E7  2AF0               	goto	l1103
  3817  02E8                     u540:
  3818                           	line	394
  3819                           	
  3820  02E8                     l1101:	
  3821                           ;PR19.c: 393: {
  3822                           ;PR19.c: 394: send_config(0x80+data);
  3823  02E8  087A               	movf	(lcd_goto@data),w
  3824  02E9  3E80               	addlw	080h
  3825  02EA  120A  118A  23E1   	fcall	_send_config
              120A  118A         
  3826                           	line	395
  3827                           ;PR19.c: 395: }
  3828  02EF  2AFD               	goto	l193
  3829                           	line	396
  3830                           	
  3831  02F0                     l191:	
  3832                           	line	398
  3833                           	
  3834  02F0                     l1103:	
  3835                           ;PR19.c: 396: else
  3836                           ;PR19.c: 397: {
  3837                           ;PR19.c: 398: data=data-20;
  3838  02F0  087A               	movf	(lcd_goto@data),w
  3839  02F1  3EEC               	addlw	0ECh
  3840  02F2  00F9               	movwf	(??_lcd_goto+0)+0
  3841  02F3  0879               	movf	(??_lcd_goto+0)+0,w
  3842  02F4  00FA               	movwf	(lcd_goto@data)
  3843                           	line	399
  3844                           	
  3845  02F5                     l1105:	
  3846                           ;PR19.c: 399: send_config(0xc0+data);
  3847  02F5  087A               	movf	(lcd_goto@data),w
  3848  02F6  3EC0               	addlw	0C0h
  3849  02F7  120A  118A  23E1   	fcall	_send_config
              120A  118A         
  3850  02FC  2AFD               	goto	l193
  3851                           	line	400
  3852                           	
  3853  02FD                     l192:	
  3854                           	line	401
  3855                           	
  3856  02FD                     l193:	
  3857  02FD  0008               	return
  3858                           	opt stack 0
  3859                           GLOBAL	__end_of_lcd_goto
  3860  02FE                     	__end_of_lcd_goto:
  3861                           	signat	_lcd_goto,4216
  3862                           	global	_lcd_clr
  3863                           
  3864 ;; *************** function _lcd_clr *****************
  3865 ;; Defined at:
  3866 ;;		line 404 in file "PR19.c"
  3867 ;; Parameters:    Size  Location     Type
  3868 ;;		None
  3869 ;; Auto vars:     Size  Location     Type
  3870 ;;		None
  3871 ;; Return value:  Size  Location     Type
  3872 ;;		None               void
  3873 ;; Registers used:
  3874 ;;		wreg, status,2, status,0, pclath, cstack
  3875 ;; Tracked objects:
  3876 ;;		On entry : 0/0
  3877 ;;		On exit  : 0/0
  3878 ;;		Unchanged: 0/0
  3879 ;; Data sizes:     COMMON   BANK0   BANK1   BANK3   BANK2
  3880 ;;      Params:         0       0       0       0       0
  3881 ;;      Locals:         0       0       0       0       0
  3882 ;;      Temps:          0       0       0       0       0
  3883 ;;      Totals:         0       0       0       0       0
  3884 ;;Total ram usage:        0 bytes
  3885 ;; Hardware stack levels used:    1
  3886 ;; Hardware stack levels required when called:    2
  3887 ;; This function calls:
  3888 ;;		_send_config
  3889 ;;		_delay
  3890 ;; This function is called by:
  3891 ;;		_shift_display
  3892 ;;		_mode_display
  3893 ;; This function uses a non-reentrant model
  3894 ;;
  3895                           psect	text555,local,class=CODE,delta=2,merge=1
  3896                           global __ptext555
  3897  0288                     __ptext555:
  3898                           psect	text555
  3899                           	file	"PR19.c"
  3900                           	line	404
  3901                           	global	__size_of_lcd_clr
  3902  0014                     	__size_of_lcd_clr	equ	__end_of_lcd_clr-_lcd_clr
  3903                           	
  3904  0288                     _lcd_clr:	
  3905                           	opt	stack 4
  3906                           ; Regs used in _lcd_clr: [wreg+status,2+status,0+pclath+cstack]
  3907                           	line	405
  3908                           	
  3909  0288                     l1107:	
  3910                           ;PR19.c: 405: send_config(0x01);
  3911  0288  3001               	movlw	(01h)
  3912  0289  120A  118A  23E1   	fcall	_send_config
              120A  118A         
  3913                           	line	406
  3914                           ;PR19.c: 406: delay(600);
  3915  028E  3000               	movlw	0
  3916  028F  00F3               	movwf	(?_delay+3)
  3917  0290  3000               	movlw	0
  3918  0291  00F2               	movwf	(?_delay+2)
  3919  0292  3002               	movlw	02h
  3920  0293  00F1               	movwf	(?_delay+1)
  3921  0294  3058               	movlw	058h
  3922  0295  00F0               	movwf	(?_delay)
  3923                           
  3924  0296  120A  118A  249F   	fcall	_delay
              120A  118A         
  3925                           	line	407
  3926                           	
  3927  029B                     l196:	
  3928  029B  0008               	return
  3929                           	opt stack 0
  3930                           GLOBAL	__end_of_lcd_clr
  3931  029C                     	__end_of_lcd_clr:
  3932                           	signat	_lcd_clr,88
  3933                           	global	_send_config
  3934                           
  3935 ;; *************** function _send_config *****************
  3936 ;; Defined at:
  3937 ;;		line 370 in file "PR19.c"
  3938 ;; Parameters:    Size  Location     Type
  3939 ;;  data            1    wreg     unsigned char 
  3940 ;; Auto vars:     Size  Location     Type
  3941 ;;  data            1    8[COMMON] unsigned char 
  3942 ;; Return value:  Size  Location     Type
  3943 ;;		None               void
  3944 ;; Registers used:
  3945 ;;		wreg, status,2, status,0, pclath, cstack
  3946 ;; Tracked objects:
  3947 ;;		On entry : 0/0
  3948 ;;		On exit  : 0/0
  3949 ;;		Unchanged: 0/0
  3950 ;; Data sizes:     COMMON   BANK0   BANK1   BANK3   BANK2
  3951 ;;      Params:         0       0       0       0       0
  3952 ;;      Locals:         1       0       0       0       0
  3953 ;;      Temps:          0       0       0       0       0
  3954 ;;      Totals:         1       0       0       0       0
  3955 ;;Total ram usage:        1 bytes
  3956 ;; Hardware stack levels used:    1
  3957 ;; Hardware stack levels required when called:    1
  3958 ;; This function calls:
  3959 ;;		_delay
  3960 ;; This function is called by:
  3961 ;;		_main
  3962 ;;		_lcd_goto
  3963 ;;		_lcd_clr
  3964 ;;		_shift_display
  3965 ;; This function uses a non-reentrant model
  3966 ;;
  3967                           psect	text556,local,class=CODE,delta=2,merge=1
  3968                           global __ptext556
  3969  03E1                     __ptext556:
  3970                           psect	text556
  3971                           	file	"PR19.c"
  3972                           	line	370
  3973                           	global	__size_of_send_config
  3974  0025                     	__size_of_send_config	equ	__end_of_send_config-_send_config
  3975                           	
  3976  03E1                     _send_config:	
  3977                           	opt	stack 5
  3978                           ; Regs used in _send_config: [wreg+status,2+status,0+pclath+cstack]
  3979                           ;send_config@data stored from wreg
  3980  03E1  00F8               	movwf	(send_config@data)
  3981                           	line	371
  3982                           	
  3983  03E2                     l1075:	
  3984                           ;PR19.c: 371: RB7=0;
  3985  03E2  1283               	bcf	status, 5	;RP0=0, select bank0
  3986  03E3  1303               	bcf	status, 6	;RP1=0, select bank0
  3987  03E4  1386               	bcf	(55/8),(55)&7	;volatile
  3988                           	line	372
  3989                           	
  3990  03E5                     l1077:	
  3991                           ;PR19.c: 372: PORTD=data;
  3992  03E5  0878               	movf	(send_config@data),w
  3993  03E6  0088               	movwf	(8)	;volatile
  3994                           	line	373
  3995                           	
  3996  03E7                     l1079:	
  3997                           ;PR19.c: 373: RB6=1;
  3998  03E7  1706               	bsf	(54/8),(54)&7	;volatile
  3999                           	line	374
  4000                           	
  4001  03E8                     l1081:	
  4002                           ;PR19.c: 374: delay(50);
  4003  03E8  3000               	movlw	0
  4004  03E9  00F3               	movwf	(?_delay+3)
  4005  03EA  3000               	movlw	0
  4006  03EB  00F2               	movwf	(?_delay+2)
  4007  03EC  3000               	movlw	0
  4008  03ED  00F1               	movwf	(?_delay+1)
  4009  03EE  3032               	movlw	032h
  4010  03EF  00F0               	movwf	(?_delay)
  4011                           
  4012  03F0  120A  118A  249F   	fcall	_delay
              120A  118A         
  4013                           	line	375
  4014                           	
  4015  03F5                     l1083:	
  4016                           ;PR19.c: 375: RB6=0;
  4017  03F5  1283               	bcf	status, 5	;RP0=0, select bank0
  4018  03F6  1303               	bcf	status, 6	;RP1=0, select bank0
  4019  03F7  1306               	bcf	(54/8),(54)&7	;volatile
  4020                           	line	376
  4021                           	
  4022  03F8                     l1085:	
  4023                           ;PR19.c: 376: delay(50);
  4024  03F8  3000               	movlw	0
  4025  03F9  00F3               	movwf	(?_delay+3)
  4026  03FA  3000               	movlw	0
  4027  03FB  00F2               	movwf	(?_delay+2)
  4028  03FC  3000               	movlw	0
  4029  03FD  00F1               	movwf	(?_delay+1)
  4030  03FE  3032               	movlw	032h
  4031  03FF  00F0               	movwf	(?_delay)
  4032                           
  4033  0400  120A  118A  249F   	fcall	_delay
              120A  118A         
  4034                           	line	377
  4035                           	
  4036  0405                     l185:	
  4037  0405  0008               	return
  4038                           	opt stack 0
  4039                           GLOBAL	__end_of_send_config
  4040  0406                     	__end_of_send_config:
  4041                           	signat	_send_config,4216
  4042                           	global	_send_string
  4043                           
  4044 ;; *************** function _send_string *****************
  4045 ;; Defined at:
  4046 ;;		line 410 in file "PR19.c"
  4047 ;; Parameters:    Size  Location     Type
  4048 ;;  s               1    wreg     PTR const unsigned char 
  4049 ;;		 -> STR_36(11), STR_35(16), STR_34(12), STR_33(16), 
  4050 ;;		 -> STR_32(9), STR_31(7), STR_30(1), STR_29(14), 
  4051 ;;		 -> STR_28(1), STR_27(10), STR_26(7), STR_25(4), 
  4052 ;;		 -> STR_24(7), STR_23(4), STR_22(7), STR_21(4), 
  4053 ;;		 -> STR_20(7), STR_19(4), STR_18(7), STR_17(4), 
  4054 ;;		 -> STR_16(7), STR_15(4), STR_14(7), STR_13(4), 
  4055 ;;		 -> STR_12(7), STR_11(4), STR_10(7), STR_9(3), 
  4056 ;;		 -> STR_8(7), STR_7(3), STR_6(7), STR_5(3), 
  4057 ;;		 -> STR_4(7), STR_3(2), STR_2(5), STR_1(9), 
  4058 ;; Auto vars:     Size  Location     Type
  4059 ;;  s               1   10[COMMON] PTR const unsigned char 
  4060 ;;		 -> STR_36(11), STR_35(16), STR_34(12), STR_33(16), 
  4061 ;;		 -> STR_32(9), STR_31(7), STR_30(1), STR_29(14), 
  4062 ;;		 -> STR_28(1), STR_27(10), STR_26(7), STR_25(4), 
  4063 ;;		 -> STR_24(7), STR_23(4), STR_22(7), STR_21(4), 
  4064 ;;		 -> STR_20(7), STR_19(4), STR_18(7), STR_17(4), 
  4065 ;;		 -> STR_16(7), STR_15(4), STR_14(7), STR_13(4), 
  4066 ;;		 -> STR_12(7), STR_11(4), STR_10(7), STR_9(3), 
  4067 ;;		 -> STR_8(7), STR_7(3), STR_6(7), STR_5(3), 
  4068 ;;		 -> STR_4(7), STR_3(2), STR_2(5), STR_1(9), 
  4069 ;; Return value:  Size  Location     Type
  4070 ;;		None               void
  4071 ;; Registers used:
  4072 ;;		wreg, fsr0l, fsr0h, status,2, status,0, pclath, cstack
  4073 ;; Tracked objects:
  4074 ;;		On entry : 0/0
  4075 ;;		On exit  : 0/0
  4076 ;;		Unchanged: 0/0
  4077 ;; Data sizes:     COMMON   BANK0   BANK1   BANK3   BANK2
  4078 ;;      Params:         0       0       0       0       0
  4079 ;;      Locals:         1       0       0       0       0
  4080 ;;      Temps:          1       0       0       0       0
  4081 ;;      Totals:         2       0       0       0       0
  4082 ;;Total ram usage:        2 bytes
  4083 ;; Hardware stack levels used:    1
  4084 ;; Hardware stack levels required when called:    2
  4085 ;; This function calls:
  4086 ;;		_send_char
  4087 ;; This function is called by:
  4088 ;;		_shift_display
  4089 ;;		_mode_display
  4090 ;; This function uses a non-reentrant model
  4091 ;;
  4092                           psect	text557,local,class=CODE,delta=2,merge=1
  4093                           global __ptext557
  4094  042B                     __ptext557:
  4095                           psect	text557
  4096                           	file	"PR19.c"
  4097                           	line	410
  4098                           	global	__size_of_send_string
  4099  0026                     	__size_of_send_string	equ	__end_of_send_string-_send_string
  4100                           	
  4101  042B                     _send_string:	
  4102                           	opt	stack 4
  4103                           ; Regs used in _send_string: [wreg-fsr0h+status,2+status,0+pclath+cstack]
  4104                           ;send_string@s stored from wreg
  4105  042B  00FA               	movwf	(send_string@s)
  4106                           	line	411
  4107                           	
  4108  042C                     l1109:	
  4109                           ;PR19.c: 411: while (s && *s)send_char (*s++);
  4110  042C  2C3E               	goto	l1115
  4111                           	
  4112  042D                     l200:	
  4113                           	
  4114  042D                     l1111:	
  4115  042D  087A               	movf	(send_string@s),w
  4116  042E  0084               	movwf	fsr0
  4117  042F  120A  118A  2003   	fcall	stringdir
              120A  118A         
  4118  0434  120A  118A  23BC   	fcall	_send_char
              120A  118A         
  4119                           	
  4120  0439                     l1113:	
  4121  0439  3001               	movlw	(01h)
  4122  043A  00F9               	movwf	(??_send_string+0)+0
  4123  043B  0879               	movf	(??_send_string+0)+0,w
  4124  043C  07FA               	addwf	(send_string@s),f
  4125  043D  2C3E               	goto	l1115
  4126                           	
  4127  043E                     l199:	
  4128                           	
  4129  043E                     l1115:	
  4130  043E  087A               	movf	(send_string@s),w
  4131  043F  1D03               	skipz
  4132  0440  2C42               	goto	u550
  4133  0441  2C50               	goto	l204
  4134  0442                     u550:
  4135                           	
  4136  0442                     l1117:	
  4137  0442  087A               	movf	(send_string@s),w
  4138  0443  0084               	movwf	fsr0
  4139  0444  120A  118A  2003   	fcall	stringdir
              120A  118A         
  4140  0449  3800               	iorlw	0
  4141  044A  1D03               	skipz
  4142  044B  2C4D               	goto	u561
  4143  044C  2C4E               	goto	u560
  4144  044D                     u561:
  4145  044D  2C2D               	goto	l1111
  4146  044E                     u560:
  4147  044E  2C50               	goto	l204
  4148                           	
  4149  044F                     l202:	
  4150  044F  2C50               	goto	l204
  4151                           	
  4152  0450                     l203:	
  4153                           	line	412
  4154                           	
  4155  0450                     l204:	
  4156  0450  0008               	return
  4157                           	opt stack 0
  4158                           GLOBAL	__end_of_send_string
  4159  0451                     	__end_of_send_string:
  4160                           	signat	_send_string,4216
  4161                           	global	_send_char
  4162                           
  4163 ;; *************** function _send_char *****************
  4164 ;; Defined at:
  4165 ;;		line 380 in file "PR19.c"
  4166 ;; Parameters:    Size  Location     Type
  4167 ;;  data            1    wreg     unsigned char 
  4168 ;; Auto vars:     Size  Location     Type
  4169 ;;  data            1    8[COMMON] unsigned char 
  4170 ;; Return value:  Size  Location     Type
  4171 ;;		None               void
  4172 ;; Registers used:
  4173 ;;		wreg, status,2, status,0, pclath, cstack
  4174 ;; Tracked objects:
  4175 ;;		On entry : 0/0
  4176 ;;		On exit  : 0/0
  4177 ;;		Unchanged: 0/0
  4178 ;; Data sizes:     COMMON   BANK0   BANK1   BANK3   BANK2
  4179 ;;      Params:         0       0       0       0       0
  4180 ;;      Locals:         1       0       0       0       0
  4181 ;;      Temps:          0       0       0       0       0
  4182 ;;      Totals:         1       0       0       0       0
  4183 ;;Total ram usage:        1 bytes
  4184 ;; Hardware stack levels used:    1
  4185 ;; Hardware stack levels required when called:    1
  4186 ;; This function calls:
  4187 ;;		_delay
  4188 ;; This function is called by:
  4189 ;;		_send_string
  4190 ;; This function uses a non-reentrant model
  4191 ;;
  4192                           psect	text558,local,class=CODE,delta=2,merge=1
  4193                           global __ptext558
  4194  03BC                     __ptext558:
  4195                           psect	text558
  4196                           	file	"PR19.c"
  4197                           	line	380
  4198                           	global	__size_of_send_char
  4199  0025                     	__size_of_send_char	equ	__end_of_send_char-_send_char
  4200                           	
  4201  03BC                     _send_char:	
  4202                           	opt	stack 4
  4203                           ; Regs used in _send_char: [wreg+status,2+status,0+pclath+cstack]
  4204                           ;send_char@data stored from wreg
  4205  03BC  00F8               	movwf	(send_char@data)
  4206                           	line	381
  4207                           	
  4208  03BD                     l1087:	
  4209                           ;PR19.c: 381: RB7=1;
  4210  03BD  1283               	bcf	status, 5	;RP0=0, select bank0
  4211  03BE  1303               	bcf	status, 6	;RP1=0, select bank0
  4212  03BF  1786               	bsf	(55/8),(55)&7	;volatile
  4213                           	line	382
  4214                           	
  4215  03C0                     l1089:	
  4216                           ;PR19.c: 382: PORTD=data;
  4217  03C0  0878               	movf	(send_char@data),w
  4218  03C1  0088               	movwf	(8)	;volatile
  4219                           	line	383
  4220                           	
  4221  03C2                     l1091:	
  4222                           ;PR19.c: 383: RB6=1;
  4223  03C2  1706               	bsf	(54/8),(54)&7	;volatile
  4224                           	line	384
  4225                           	
  4226  03C3                     l1093:	
  4227                           ;PR19.c: 384: delay(10);
  4228  03C3  3000               	movlw	0
  4229  03C4  00F3               	movwf	(?_delay+3)
  4230  03C5  3000               	movlw	0
  4231  03C6  00F2               	movwf	(?_delay+2)
  4232  03C7  3000               	movlw	0
  4233  03C8  00F1               	movwf	(?_delay+1)
  4234  03C9  300A               	movlw	0Ah
  4235  03CA  00F0               	movwf	(?_delay)
  4236                           
  4237  03CB  120A  118A  249F   	fcall	_delay
              120A  118A         
  4238                           	line	385
  4239                           	
  4240  03D0                     l1095:	
  4241                           ;PR19.c: 385: RB6=0;
  4242  03D0  1283               	bcf	status, 5	;RP0=0, select bank0
  4243  03D1  1303               	bcf	status, 6	;RP1=0, select bank0
  4244  03D2  1306               	bcf	(54/8),(54)&7	;volatile
  4245                           	line	386
  4246                           	
  4247  03D3                     l1097:	
  4248                           ;PR19.c: 386: delay(10);
  4249  03D3  3000               	movlw	0
  4250  03D4  00F3               	movwf	(?_delay+3)
  4251  03D5  3000               	movlw	0
  4252  03D6  00F2               	movwf	(?_delay+2)
  4253  03D7  3000               	movlw	0
  4254  03D8  00F1               	movwf	(?_delay+1)
  4255  03D9  300A               	movlw	0Ah
  4256  03DA  00F0               	movwf	(?_delay)
  4257                           
  4258  03DB  120A  118A  249F   	fcall	_delay
              120A  118A         
  4259                           	line	387
  4260                           	
  4261  03E0                     l188:	
  4262  03E0  0008               	return
  4263                           	opt stack 0
  4264                           GLOBAL	__end_of_send_char
  4265  03E1                     	__end_of_send_char:
  4266                           	signat	_send_char,4216
  4267                           	global	_delay
  4268                           
  4269 ;; *************** function _delay *****************
  4270 ;; Defined at:
  4271 ;;		line 363 in file "PR19.c"
  4272 ;; Parameters:    Size  Location     Type
  4273 ;;  data            4    0[COMMON] unsigned long 
  4274 ;; Auto vars:     Size  Location     Type
  4275 ;;		None
  4276 ;; Return value:  Size  Location     Type
  4277 ;;		None               void
  4278 ;; Registers used:
  4279 ;;		wreg
  4280 ;; Tracked objects:
  4281 ;;		On entry : 0/0
  4282 ;;		On exit  : 0/0
  4283 ;;		Unchanged: 0/0
  4284 ;; Data sizes:     COMMON   BANK0   BANK1   BANK3   BANK2
  4285 ;;      Params:         4       0       0       0       0
  4286 ;;      Locals:         0       0       0       0       0
  4287 ;;      Temps:          4       0       0       0       0
  4288 ;;      Totals:         8       0       0       0       0
  4289 ;;Total ram usage:        8 bytes
  4290 ;; Hardware stack levels used:    1
  4291 ;; This function calls:
  4292 ;;		Nothing
  4293 ;; This function is called by:
  4294 ;;		_main
  4295 ;;		_alphamode
  4296 ;;		_betamode
  4297 ;;		_send_config
  4298 ;;		_send_char
  4299 ;;		_lcd_clr
  4300 ;;		_shift_display
  4301 ;;		_mode_display
  4302 ;; This function uses a non-reentrant model
  4303 ;;
  4304                           psect	text559,local,class=CODE,delta=2,merge=1
  4305                           global __ptext559
  4306  049F                     __ptext559:
  4307                           psect	text559
  4308                           	file	"PR19.c"
  4309                           	line	363
  4310                           	global	__size_of_delay
  4311  0030                     	__size_of_delay	equ	__end_of_delay-_delay
  4312                           	
  4313  049F                     _delay:	
  4314                           	opt	stack 6
  4315                           ; Regs used in _delay: [wreg]
  4316                           	line	364
  4317                           	
  4318  049F                     l1013:	
  4319                           ;PR19.c: 364: for( ;data>0;data-=1);
  4320  049F  0873               	movf	(delay@data+3),w
  4321  04A0  0472               	iorwf	(delay@data+2),w
  4322  04A1  0471               	iorwf	(delay@data+1),w
  4323  04A2  0470               	iorwf	(delay@data),w
  4324  04A3  1D03               	skipz
  4325  04A4  2CA6               	goto	u391
  4326  04A5  2CA7               	goto	u390
  4327  04A6                     u391:
  4328  04A6  2CA9               	goto	l1017
  4329  04A7                     u390:
  4330  04A7  2CCE               	goto	l182
  4331                           	
  4332  04A8                     l1015:	
  4333  04A8  2CCE               	goto	l182
  4334                           	
  4335  04A9                     l180:	
  4336                           	
  4337  04A9                     l1017:	
  4338  04A9  3001               	movlw	01h
  4339  04AA  00F4               	movwf	((??_delay+0)+0)
  4340  04AB  3000               	movlw	0
  4341  04AC  00F5               	movwf	((??_delay+0)+0+1)
  4342  04AD  3000               	movlw	0
  4343  04AE  00F6               	movwf	((??_delay+0)+0+2)
  4344  04AF  3000               	movlw	0
  4345  04B0  00F7               	movwf	((??_delay+0)+0+3)
  4346  04B1  0874               	movf	0+(??_delay+0)+0,w
  4347  04B2  02F0               	subwf	(delay@data),f
  4348  04B3  0875               	movf	1+(??_delay+0)+0,w
  4349  04B4  1C03               	skipc
  4350  04B5  0F75               	incfsz	1+(??_delay+0)+0,w
  4351  04B6  2CB8               	goto	u405
  4352  04B7  2CB9               	goto	u406
  4353  04B8                     u405:
  4354  04B8  02F1               	subwf	(delay@data+1),f
  4355  04B9                     u406:
  4356  04B9  0876               	movf	2+(??_delay+0)+0,w
  4357  04BA  1C03               	skipc
  4358  04BB  0F76               	incfsz	2+(??_delay+0)+0,w
  4359  04BC  2CBE               	goto	u407
  4360  04BD  2CBF               	goto	u408
  4361  04BE                     u407:
  4362  04BE  02F2               	subwf	(delay@data+2),f
  4363  04BF                     u408:
  4364  04BF  0877               	movf	3+(??_delay+0)+0,w
  4365  04C0  1C03               	skipc
  4366  04C1  0F77               	incfsz	3+(??_delay+0)+0,w
  4367  04C2  2CC4               	goto	u409
  4368  04C3  2CC5               	goto	u400
  4369  04C4                     u409:
  4370  04C4  02F3               	subwf	(delay@data+3),f
  4371  04C5                     u400:
  4372                           
  4373  04C5  0873               	movf	(delay@data+3),w
  4374  04C6  0472               	iorwf	(delay@data+2),w
  4375  04C7  0471               	iorwf	(delay@data+1),w
  4376  04C8  0470               	iorwf	(delay@data),w
  4377  04C9  1D03               	skipz
  4378  04CA  2CCC               	goto	u411
  4379  04CB  2CCD               	goto	u410
  4380  04CC                     u411:
  4381  04CC  2CA9               	goto	l1017
  4382  04CD                     u410:
  4383  04CD  2CCE               	goto	l182
  4384                           	
  4385  04CE                     l181:	
  4386                           	line	365
  4387                           	
  4388  04CE                     l182:	
  4389  04CE  0008               	return
  4390                           	opt stack 0
  4391                           GLOBAL	__end_of_delay
  4392  04CF                     	__end_of_delay:
  4393                           	signat	_delay,4216
  4394                           psect	text560,local,class=CODE,delta=2,merge=1
  4395                           global __ptext560
  4396  0000                     __ptext560:
  4397                           	global	btemp
  4398  007E                     	btemp set 07Eh
  4399                           
  4400                           	DABS	1,126,2	;btemp
  4401                           	global	wtemp0
  4402  007E                     	wtemp0 set btemp


Data Sizes:
    Strings     120
    Constant    0
    Data        0
    BSS         2
    Persistent  0
    Stack       0

Auto Spaces:
    Space          Size  Autos    Used
    COMMON           14     14      14
    BANK0            80      1       3
    BANK1            80      0       0
    BANK3            96      0       0
    BANK2            96      0       0

Pointer List with Targets:

    mode_display@y	PTR const unsigned char  size(1) Largest target is 7
		 -> STR_30(CODE[1]), STR_28(CODE[1]), STR_26(CODE[7]), STR_24(CODE[7]), 
		 -> STR_22(CODE[7]), STR_20(CODE[7]), STR_18(CODE[7]), STR_16(CODE[7]), 
		 -> STR_14(CODE[7]), STR_12(CODE[7]), STR_10(CODE[7]), STR_8(CODE[7]), 
		 -> STR_6(CODE[7]), STR_4(CODE[7]), STR_2(CODE[5]), 

    mode_display@x	PTR const unsigned char  size(1) Largest target is 14
		 -> STR_29(CODE[14]), STR_27(CODE[10]), STR_25(CODE[4]), STR_23(CODE[4]), 
		 -> STR_21(CODE[4]), STR_19(CODE[4]), STR_17(CODE[4]), STR_15(CODE[4]), 
		 -> STR_13(CODE[4]), STR_11(CODE[4]), STR_9(CODE[3]), STR_7(CODE[3]), 
		 -> STR_5(CODE[3]), STR_3(CODE[2]), STR_1(CODE[9]), 

    send_string@s	PTR const unsigned char  size(1) Largest target is 16
		 -> STR_36(CODE[11]), STR_35(CODE[16]), STR_34(CODE[12]), STR_33(CODE[16]), 
		 -> STR_32(CODE[9]), STR_31(CODE[7]), STR_30(CODE[1]), STR_29(CODE[14]), 
		 -> STR_28(CODE[1]), STR_27(CODE[10]), STR_26(CODE[7]), STR_25(CODE[4]), 
		 -> STR_24(CODE[7]), STR_23(CODE[4]), STR_22(CODE[7]), STR_21(CODE[4]), 
		 -> STR_20(CODE[7]), STR_19(CODE[4]), STR_18(CODE[7]), STR_17(CODE[4]), 
		 -> STR_16(CODE[7]), STR_15(CODE[4]), STR_14(CODE[7]), STR_13(CODE[4]), 
		 -> STR_12(CODE[7]), STR_11(CODE[4]), STR_10(CODE[7]), STR_9(CODE[3]), 
		 -> STR_8(CODE[7]), STR_7(CODE[3]), STR_6(CODE[7]), STR_5(CODE[3]), 
		 -> STR_4(CODE[7]), STR_3(CODE[2]), STR_2(CODE[5]), STR_1(CODE[9]), 


Critical Paths under _main in COMMON

    _alphamode->_deg_270
    _alphamode->_deg_0
    _alphamode->_deg_90
    _alphamode->_deg_180
    _alphamode->_clockwise
    _alphamode->_m_stop
    _betamode->_deg_330
    _betamode->_deg_0
    _betamode->_deg_30
    _betamode->_deg_150
    _betamode->_deg_180
    _betamode->_deg_210
    _betamode->_m_stop
    _shift_display->_lcd_goto
    _shift_display->_send_string
    _deg_270->_mode_display
    _deg_0->_mode_display
    _deg_90->_mode_display
    _deg_180->_mode_display
    _clockwise->_mode_display
    _m_stop->_mode_display
    _deg_330->_mode_display
    _deg_30->_mode_display
    _deg_150->_mode_display
    _deg_210->_mode_display
    _mode_display->_lcd_goto
    _mode_display->_send_string
    _lcd_goto->_send_config
    _lcd_clr->_send_config
    _send_config->_delay
    _send_string->_send_char
    _send_char->_delay

Critical Paths under _main in BANK0

    None.

Critical Paths under _main in BANK1

    None.

Critical Paths under _main in BANK3

    None.

Critical Paths under _main in BANK2

    None.

Call Graph Tables:

 ---------------------------------------------------------------------------------
 (Depth) Function   	        Calls       Base Space   Used Autos Params    Refs
 ---------------------------------------------------------------------------------
 (0) _main                                                 1     1      0    8199
                                              0 BANK0      1     1      0
                        _send_config
                              _delay
                          _alphamode
                           _betamode
                      _shift_display
 ---------------------------------------------------------------------------------
 (1) _alphamode                                            0     0      0    3563
                            _deg_270
                              _delay
                              _deg_0
                             _deg_90
                            _deg_180
                          _clockwise
                             _m_stop
 ---------------------------------------------------------------------------------
 (1) _betamode                                             0     0      0    4010
                            _deg_330
                              _delay
                              _deg_0
                             _deg_30
                            _deg_150
                            _deg_180
                            _deg_210
                             _m_stop
 ---------------------------------------------------------------------------------
 (1) _shift_display                                        1     1      0     514
                                             11 COMMON     1     1      0
                            _lcd_clr
                           _lcd_goto
                        _send_string
                        _send_config
                              _delay
 ---------------------------------------------------------------------------------
 (2) _deg_270                                              1     1      0     623
                                             13 COMMON     1     1      0
                             _lm_run
                             _rm_run
                             _bm_run
                       _mode_display
 ---------------------------------------------------------------------------------
 (2) _deg_0                                                1     1      0     579
                                             13 COMMON     1     1      0
                             _lm_run
                             _rm_run
                       _mode_display
 ---------------------------------------------------------------------------------
 (2) _deg_90                                               1     1      0     623
                                             13 COMMON     1     1      0
                             _lm_run
                             _rm_run
                             _bm_run
                       _mode_display
 ---------------------------------------------------------------------------------
 (2) _deg_180                                              1     1      0     579
                                             13 COMMON     1     1      0
                             _lm_run
                             _rm_run
                       _mode_display
 ---------------------------------------------------------------------------------
 (2) _clockwise                                            1     1      0     623
                                             13 COMMON     1     1      0
                             _lm_run
                             _rm_run
                             _bm_run
                       _mode_display
 ---------------------------------------------------------------------------------
 (2) _m_stop                                               1     1      0     491
                                             13 COMMON     1     1      0
                       _mode_display
 ---------------------------------------------------------------------------------
 (2) _deg_330                                              1     1      0     579
                                             13 COMMON     1     1      0
                             _rm_run
                             _bm_run
                       _mode_display
 ---------------------------------------------------------------------------------
 (2) _deg_30                                               1     1      0     579
                                             13 COMMON     1     1      0
                             _lm_run
                             _bm_run
                       _mode_display
 ---------------------------------------------------------------------------------
 (2) _deg_150                                              1     1      0     579
                                             13 COMMON     1     1      0
                             _rm_run
                             _bm_run
                       _mode_display
 ---------------------------------------------------------------------------------
 (2) _deg_210                                              1     1      0     579
                                             13 COMMON     1     1      0
                             _lm_run
                             _bm_run
                       _mode_display
 ---------------------------------------------------------------------------------
 (3) _mode_display                                         2     1      1     491
                                             11 COMMON     2     1      1
                            _lcd_clr
                           _lcd_goto
                        _send_string
                              _delay
 ---------------------------------------------------------------------------------
 (3) _lm_run                                               1     1      0      44
                                              0 COMMON     1     1      0
 ---------------------------------------------------------------------------------
 (3) _rm_run                                               1     1      0      44
                                              0 COMMON     1     1      0
 ---------------------------------------------------------------------------------
 (3) _bm_run                                               1     1      0      44
                                              0 COMMON     1     1      0
 ---------------------------------------------------------------------------------
 (2) _lcd_goto                                             2     2      0     156
                                              9 COMMON     2     2      0
                        _send_config
 ---------------------------------------------------------------------------------
 (2) _lcd_clr                                              0     0      0     112
                        _send_config
                              _delay
 ---------------------------------------------------------------------------------
 (2) _send_config                                          1     1      0      67
                                              8 COMMON     1     1      0
                              _delay
 ---------------------------------------------------------------------------------
 (2) _send_string                                          2     2      0     134
                                              9 COMMON     2     2      0
                          _send_char
 ---------------------------------------------------------------------------------
 (3) _send_char                                            1     1      0      67
                                              8 COMMON     1     1      0
                              _delay
 ---------------------------------------------------------------------------------
 (2) _delay                                                8     4      4      45
                                              0 COMMON     8     4      4
 ---------------------------------------------------------------------------------
 Estimated maximum stack depth 3
 ---------------------------------------------------------------------------------

 Call Graph Graphs:

 _main (ROOT)
   _send_config
     _delay
   _delay
   _alphamode
     _deg_270
       _lm_run
       _rm_run
       _bm_run
       _mode_display
         _lcd_clr
           _send_config
             _delay
           _delay
         _lcd_goto
           _send_config
             _delay
         _send_string
           _send_char
             _delay
         _delay
     _delay
     _deg_0
       _lm_run
       _rm_run
       _mode_display
         _lcd_clr
           _send_config
             _delay
           _delay
         _lcd_goto
           _send_config
             _delay
         _send_string
           _send_char
             _delay
         _delay
     _deg_90
       _lm_run
       _rm_run
       _bm_run
       _mode_display
         _lcd_clr
           _send_config
             _delay
           _delay
         _lcd_goto
           _send_config
             _delay
         _send_string
           _send_char
             _delay
         _delay
     _deg_180
       _lm_run
       _rm_run
       _mode_display
         _lcd_clr
           _send_config
             _delay
           _delay
         _lcd_goto
           _send_config
             _delay
         _send_string
           _send_char
             _delay
         _delay
     _clockwise
       _lm_run
       _rm_run
       _bm_run
       _mode_display
         _lcd_clr
           _send_config
             _delay
           _delay
         _lcd_goto
           _send_config
             _delay
         _send_string
           _send_char
             _delay
         _delay
     _m_stop
       _mode_display
         _lcd_clr
           _send_config
             _delay
           _delay
         _lcd_goto
           _send_config
             _delay
         _send_string
           _send_char
             _delay
         _delay
   _betamode
     _deg_330
       _rm_run
       _bm_run
       _mode_display
         _lcd_clr
           _send_config
             _delay
           _delay
         _lcd_goto
           _send_config
             _delay
         _send_string
           _send_char
             _delay
         _delay
     _delay
     _deg_0
       _lm_run
       _rm_run
       _mode_display
         _lcd_clr
           _send_config
             _delay
           _delay
         _lcd_goto
           _send_config
             _delay
         _send_string
           _send_char
             _delay
         _delay
     _deg_30
       _lm_run
       _bm_run
       _mode_display
         _lcd_clr
           _send_config
             _delay
           _delay
         _lcd_goto
           _send_config
             _delay
         _send_string
           _send_char
             _delay
         _delay
     _deg_150
       _rm_run
       _bm_run
       _mode_display
         _lcd_clr
           _send_config
             _delay
           _delay
         _lcd_goto
           _send_config
             _delay
         _send_string
           _send_char
             _delay
         _delay
     _deg_180
       _lm_run
       _rm_run
       _mode_display
         _lcd_clr
           _send_config
             _delay
           _delay
         _lcd_goto
           _send_config
             _delay
         _send_string
           _send_char
             _delay
         _delay
     _deg_210
       _lm_run
       _bm_run
       _mode_display
         _lcd_clr
           _send_config
             _delay
           _delay
         _lcd_goto
           _send_config
             _delay
         _send_string
           _send_char
             _delay
         _delay
     _m_stop
       _mode_display
         _lcd_clr
           _send_config
             _delay
           _delay
         _lcd_goto
           _send_config
             _delay
         _send_string
           _send_char
             _delay
         _delay
   _shift_display
     _lcd_clr
       _send_config
         _delay
       _delay
     _lcd_goto
       _send_config
         _delay
     _send_string
       _send_char
         _delay
     _send_config
       _delay
     _delay

 Address spaces:
Name               Size   Autos  Total    Cost      Usage
BITCOMMON            E      0       0       0        0.0%
NULL                 0      0       0       0        0.0%
CODE                 0      0       0       0        0.0%
COMMON               E      E       E       1      100.0%
BITSFR0              0      0       0       1        0.0%
SFR0                 0      0       0       1        0.0%
BITSFR1              0      0       0       2        0.0%
SFR1                 0      0       0       2        0.0%
STACK                0      0       6       2        0.0%
ABS                  0      0      11       3        0.0%
BITBANK0            50      0       0       4        0.0%
BITSFR3              0      0       0       4        0.0%
SFR3                 0      0       0       4        0.0%
BANK0               50      1       3       5        3.8%
BITSFR2              0      0       0       5        0.0%
SFR2                 0      0       0       5        0.0%
DATA                 0      0      17       6        0.0%
BITBANK1            50      0       0       7        0.0%
BANK1               50      0       0       8        0.0%
BITBANK3            60      0       0       9        0.0%
BANK3               60      0       0      10        0.0%
BITBANK2            60      0       0      11        0.0%
BANK2               60      0       0      12        0.0%


HI-TECH Software PICC Macro Assembler V1.00 build 12136 
Symbol Table                                                                                   Wed Jun 27 15:10:55 2012

                     _i 0020                       pc 0002                      l95 065F                      l96 0688  
                    l97 0671                      l98 0681                      l99 0672                      fsr 0004  
                   l100 0688                     l101 06BB                     l110 06C5                     l102 069D  
                   l111 06C5                     l103 068E                     l200 042D                     l120 0584  
                   l104 06A4                     l121 0505                     l105 06B1                     l202 044F  
                   l210 06E8                     l122 058D                     l114 060E                     l106 06A5  
                   l203 0450                     l211 06EE                     l123 058D                     l115 058F  
                   l107 06AA                     l204 0450                     l132 02C9                     l220 0761  
                   l212 07FF                     l116 0617                     l108 06BB                     l141 039B  
                   l213 0711                     l117 0617                     l109 06C4                     l126 0287  
                   l230 07DD                     l222 0760                     l214 0730                     l135 02B2  
                   l207 07F2                     l223 0780                     l215 0712                     l232 07DC  
                   l216 0718                     l208 06C9                     l129 02E0                     l153 037B  
                   l225 077F                     l217 0736                     l209 0708                     l138 033B  
                   l218 07FF                     l226 0794                     l235 04D9                     l171 03BB  
                   l147 0477                     l227 07BE                     l219 0737                     l180 04A9  
                   l236 0503                     l156 031C                     l181 04CE                     l165 049E  
                   l229 07BD                     l182 04CE                     l174 042A                     l191 02F0  
                   l159 035B                     l192 02FD                     l185 0405                     l193 02FD  
                   l188 03E0                     l196 029B                     l199 043E                     _RA0 0028  
                   _RA1 0029                     _RA2 002A                     _RA3 002B                     _RC0 0038  
                   _RB3 0033                     _RB4 0034                     _RC3 003B                     _RC4 003C  
                   _RB6 0036                     _RC5 003D                     _RB7 0037                     u400 04C5  
                   u410 04CD                     u411 04CC                     u500 02A5                     u420 02D2  
                   u405 04B8                     u501 02A1                     u421 02CE                     u406 04B9  
                   _PR2 0092                     u407 04BE                     u408 04BF                     u520 02AF  
                   u440 02DD                     u600 0735                     u409 04C4                     u521 02AB  
                   u441 02D9                     u601 0734                     u514 02A8                     u434 02D5  
                   u610 075B                     u611 075A                     u540 02E8                     u460 02BB  
                   u620 075F                     u700 0616                     u541 02E7                     u461 02B7  
                   u621 075E                     u701 0615                     u390 04A7                     u550 0442  
                   u534 02B2                     u454 02E0                     u630 077A                     u710 058C  
                   u391 04A6                     u631 0779                     u711 058B                     u560 044E  
                   u480 02C6                     u640 077E                     u720 0665                     u561 044D  
                   u481 02C2                     u641 077D                     u721 0664                     u474 02BE  
                   u650 07B8                     u570 06EC                     u730 066F                     u651 07B7  
                   u571 06EB                     u731 066E                     u660 07BC                     u580 0710  
                   u740 0687                     u661 07BB                     u581 070F                     u741 0686  
                   u494 02C9                     u670 07D7                     u590 0716                     u750 068C  
                   u671 07D6                     u591 0715                     u751 068B                     u680 07DB  
                   u760 06A3                     u681 07DA                     u761 06A2                     u690 04D7  
                   u691 04D6                     fsr0 0004         send_config@data 0078                    l1013 049F  
                  l1101 02E8                    l1021 02B4                    l1015 04A8                    l1111 042D  
                  l1103 02F0                    l1023 029D                    l1017 04A9                    l1113 0439  
                  l1105 02F5                    l1201 048E                    l1121 06CA                    l1115 043E  
                  l1107 0288                    l1019 02CB                    l1211 032B                    l1203 0494  
                  l1131 0701                    l1123 06D5                    l1117 0442                    l1109 042C  
                  l1221 0467                    l1213 0331                    l1205 031D                    l1141 0730  
                  l1133 0708                    l1125 06DB                    l1301 0594                    l1231 030C  
                  l1223 046D                    l1215 0451                    l1207 0322                    l1151 075B  
                  l1143 0738                    l1135 0717                    l1127 06ED                    l1119 06C8  
                  l1311 05D7                    l1303 05A1                    l1081 03E8                    l1241 041A  
                  l1233 0312                    l1225 02FE                    l1217 045B                    l1209 0325  
                  l1161 0795                    l1153 0761                    l1145 0743                    l1137 0718  
                  l1129 06EE                    l1321 0504                    l1313 05E9                    l1305 05B3  
                  l1401 068F                    l1091 03C2                    l1083 03F5                    l1075 03E2  
                  l1251 039F                    l1243 0420                    l1235 0406                    l1227 0303  
                  l1219 0461                    l1171 07BE                    l1163 07A0                    l1155 0774  
                  l1147 0749                    l1139 072B                    l1331 052E                    l1323 0505  
                  l1315 05EE                    l1307 05B8                    l1411 06BE                    l1403 069D  
                  l1093 03C3                    l1085 03F8                    l1077 03E5                    l1261 037C  
                  l1253 03A1                    l1245 0275                    l1237 040E                    l1229 0306  
                  l1173 07D1                    l1165 07A6                    l1157 077A                    l1149 0755  
                  l1181 07F2                    l1341 0576                    l1333 0540                    l1325 050A  
                  l1317 0600                    l1309 05CA                    l1405 06A5                    l1095 03D0  
                  l1087 03BD                    l1079 03E7                    l1191 04EA                    l1183 04D0  
                  l1271 0391                    l1263 0380                    l1255 03A5                    l1247 027D  
                  l1239 0414                    l1175 07D7                    l1167 07B2                    l1159 0780  
                  l1335 054D                    l1327 0517                    l1343 0584                    l1319 060E  
                  l1407 06B0                    l1351 0620                    l1097 03D3                    l1089 03C0  
                  l1193 04F6                    l1185 04D8                    l1281 036B                    l1273 035C  
                  l1265 0381                    l1257 03AB                    l1249 039C                    l1177 07DD  
                  l1169 07B8                    l1337 055F                    l1329 0529                    l1409 06B1  
                  l1361 062C                    l1353 0621                    l1345 0618                    l1099 02E2  
                  l1187 04D9                    l1291 0345                    l1283 0371                    l1275 035F  
                  l1267 0385                    l1259 03B1                    l1195 0478                    l1179 07F1  
                  l1339 0564                    l1371 0647                    l1363 0632                    l1355 0624  
                  l1347 061E                    l1189 04E4                    l1293 034B                    l1285 033C  
                  l1277 0361                    l1269 038B                    l1197 0482                    l1381 0659  
                  l1373 064B                    l1365 0638                    l1357 0625                    l1349 061F  
                  l1295 0351                    l1287 0340                    l1279 0365                    l1199 0488  
                  l1391 0669                    l1383 065A                    l1375 064F                    l1367 063E  
                  l1359 0626                    l1289 0341                    l1297 058E                    l1393 066F  
                  l1385 065B                    l1377 0651                    l1369 0644                    l1299 058F  
                  l1395 0673                    l1387 065F                    l1379 0655                    l1397 0681  
                  l1389 0665                    l1399 068D                    STR_1 0010                    STR_2 0056  
                  STR_3 005D                    STR_4 0048                    STR_5 0068                    STR_6 0048  
                  STR_7 007B                    STR_9 007E                    _main 0618                    btemp 007E  
          lcd_goto@data 007A           mode_display@x 007C           mode_display@y 007B                    start 0000  
                 ?_main 0070                   STR_10 0048                   STR_11 0063                   STR_21 0073  
                 STR_13 006F                   STR_22 0048                   STR_14 0048                   STR_15 0077  
                 STR_23 005B                   STR_31 004F                   STR_16 0048                   STR_32 0010  
                 STR_25 0067                   STR_17 005F                   STR_33 0009                   STR_26 0048  
                 STR_18 0048                   STR_34 0027                   STR_35 0009                   STR_19 006B  
                 STR_27 003E                   STR_28 005E                   STR_36 0033                   STR_29 0019  
       __end_of_deg_210 035C         __end_of_deg_150 037C         __end_of_deg_330 03BC         __end_of_deg_180 031D  
       __end_of_deg_270 049F                   _T2CON 0012                   _PORTB 0006                   _PORTC 0007  
                 _PORTD 0008                   _TRISA 0085                   _TRISB 0086                   _TRISC 0087  
                 _TRISD 0088         __end_of_lcd_clr 029C                   _deg_0 031D                   _delay 049F  
                 _shift 0021                   pclath 000A                   status 0003                   wtemp0 007E  
          __end_of_main 06C8                  ??_main 0022                  ?_deg_0 0070                  ?_delay 0070  
          ?_send_config 0070                  _ADCON1 009F                  _CCPR1L 0015                  _CCPR2L 001B  
                _CCPR3L 0095            ?_send_string 0070        __end_of_betamode 058E        __end_of_lcd_goto 02FE  
                _deg_30 037C                  _deg_90 0451               ??_deg_210 007D               ??_deg_150 007D  
             ??_deg_330 007D               ??_deg_180 007D               ??_deg_270 007D                  _bm_run 029C  
                _m_stop 0275                  _lm_run 02CA                  _rm_run 02B3               ??_lcd_clr 0079  
         ?_mode_display 007B   __end_of_shift_display 0800          __pcstackCOMMON 0070           __end_of_deg_0 033C  
         __end_of_delay 04CF      __size_of_alphamode 008A          ??_mode_display 007C      __size_of_clockwise 0025  
               ??_deg_0 007D                 ??_delay 0074              __pbssBANK0 0020              __pmaintext 0618  
               ?_deg_30 0070                 ?_deg_90 0070                 ?_bm_run 0070      __size_of_send_char 0025  
               _CCP1CON 0017                 _CCP2CON 001D                 _CCP3CON 0097                 ?_m_stop 0070  
               ?_lm_run 0070                 ?_rm_run 0070               ?_betamode 0070               ?_lcd_goto 0070  
  __size_of_send_config 0025       __end_of_alphamode 0618    __size_of_send_string 0026       __end_of_clockwise 042B  
       __size_of_deg_30 0020         __size_of_deg_90 0027                 _deg_210 033C                 _deg_150 035C  
               _deg_330 039C                 _deg_180 02FE                 _deg_270 0478         __size_of_bm_run 0017  
       __size_of_m_stop 0013         __size_of_lm_run 0017         __size_of_rm_run 0017                 _lcd_clr 0288  
            ??_betamode 007E              ??_lcd_goto 0079    end_of_initialization 0271       __end_of_send_char 03E1  
  __end_of_mode_display 0504           send_char@data 0078          __end_of_deg_30 039C          __end_of_deg_90 0478  
        __end_of_bm_run 02B3          __end_of_m_stop 0288          __end_of_lm_run 02E1          __end_of_rm_run 02CA  
   start_initialization 026F                ??_deg_30 007D                ??_deg_90 007D                ??_bm_run 0070  
              ??_m_stop 007D                ??_lm_run 0070                ??_rm_run 0070  __size_of_shift_display 0138  
         __pcstackBANK0 0022       __size_of_betamode 008A   __size_of_mode_display 0035       __size_of_lcd_goto 001D  
             _alphamode 058E               __ptext540 0478               __ptext541 031D               __ptext550 04CF  
             __ptext542 0451               __ptext551 02CA               __ptext543 02FE                ?_deg_210 0070  
             __ptext560 0000               __ptext552 02B3               __ptext544 0406               __ptext553 029C  
             __ptext545 0275               __ptext537 058E               __ptext554 02E1               __ptext546 039C  
             __ptext538 0504               __ptext555 0288               __ptext547 037C               __ptext539 06C8  
              ?_deg_150 0070               __ptext556 03E1               __ptext548 035C               __ptext557 042B  
             __ptext549 033C               __ptext558 03BC               __ptext559 049F                ?_deg_330 0070  
              ?_deg_180 0070                ?_deg_270 0070               _clockwise 0406               __pstrings 0003  
              ?_lcd_clr 0070            _mode_display 04CF           ??_send_config 0078          __size_of_deg_0 001F  
        __size_of_delay 0030               delay@data 0070           ??_send_string 0079               bm_run@dir 0070  
             _send_char 03BC           _shift_display 06C8              ?_alphamode 0070              ?_clockwise 0070  
           __stringbase 0008     __end_of_send_config 0406          ?_shift_display 0070              ?_send_char 0070  
          send_string@s 007A     __end_of_send_string 0451               lm_run@dir 0070        __size_of_deg_210 0020  
      __size_of_deg_150 0020        __size_of_deg_330 0020        __size_of_deg_180 001F        __size_of_deg_270 0027  
      __size_of_lcd_clr 0014                _betamode 0504                _lcd_goto 02E1           __size_of_main 00B0  
             rm_run@dir 0070             ??_alphamode 007E             ??_clockwise 007D             _send_config 03E1  
       ??_shift_display 007B             _send_string 042B             ??_send_char 0078               stringcode 0003  
              stringdir 0003                stringtab 0003  
