HI-TECH Software XC8 Compiler V1.00 ()

Linker command line:

--edf=C:\Program Files (x86)\Microchip\xc8\v1.00\dat\en_msgs.txt -cs \
  -h+dist/default/production\PR_19___F.Transwheel.X.production.sym -z \
  -Q16F777 -ol.obj \
  -Mdist/default/production/PR_19___F.Transwheel.X.production.map -E1 \
  -ver=XC8 -ACONST=00h-0FFhx32 -ACODE=00h-07FFhx4 -ASTRCODE=00h-01FFFh \
  -AENTRY=00h-0FFhx32 -ASTRING=00h-0FFhx32 -ACOMMON=070h-07Fh \
  -ABANK0=020h-06Fh -ABANK1=0A0h-0EFh -ABANK2=0110h-016Fh \
  -ABANK3=0190h-01EFh -ARAM=020h-06Fh,0A0h-0EFh,0110h-016Fh,0190h-01EFh \
  -AABS1=020h-07Fh,0A0h-0EFh,0110h-016Fh,0190h-01EFh -ASFR0=00h-01Fh \
  -ASFR1=080h-09Fh -ASFR2=0100h-010Fh -ASFR3=0180h-018Fh \
  -preset_vec=00h,intentry,init,end_init -ppowerup=CODE -pfunctab=CODE \
  -ACONFIG=02007h-02008h -pconfig=CONFIG -DCONFIG=2 -AIDLOC=02000h-02003h \
  -pidloc=IDLOC -DIDLOC=2 -DCODE=2 -DSTRCODE=2 -DSTRING=2 -DCONST=2 \
  -DENTRY=2 -k C:\Users\HATAKE~1\AppData\Local\Temp\s2nvk.obj \
  dist/default/production\PR_19___F.Transwheel.X.production.obj 

Object code version is 3.10

Machine type is 16F777



                Name                               Link     Load   Length Selector   Space Scale
C:\Users\HATAKE~1\AppData\Local\Temp\s2nvk.obj
                end_init                              0        0        3        0       0
dist/default/production\PR_19___F.Transwheel.X.production.obj
                config                             2007     2007        2     400E       0
                text559                             49F      49F       30      93E       0
                text558                             3BC      3BC       25      778       0
                text557                             42B      42B       26      856       0
                text556                             3E1      3E1       25      7C2       0
                text555                             288      288       14      510       0
                text554                             2E1      2E1       1D      5C2       0
                text553                             29C      29C       17      538       0
                text552                             2B3      2B3       17      566       0
                text551                             2CA      2CA       17      594       0
                text550                             4CF      4CF       35      99E       0
                text549                             33C      33C       20      678       0
                text548                             35C      35C       20      6B8       0
                text547                             37C      37C       20      6F8       0
                text546                             39C      39C       20      738       0
                text545                             275      275       13      4EA       0
                text544                             406      406       25      80C       0
                text543                             2FE      2FE       1F      5FC       0
                text542                             451      451       27      8A2       0
                text541                             31D      31D       1F      63A       0
                text540                             478      478       27      8F0       0
                text539                             6C8      6C8      138      D90       0
                text538                             504      504       8A      A08       0
                text537                             58E      58E       8A      B1C       0
                maintext                            618      618       B0      C30       0
                cstackBANK0                          22       22        1       20       1
                cstackCOMMON                         70       70        E       70       1
                bssBANK0                             20       20        2       20       1
                cinit                               26F      26F        6      4DE       0
                strings                               3        3       7E        6       0

TOTAL           Name                               Link     Load   Length     Space
        CLASS   CONST          

        CLASS   CODE           
                end_init                              0        0        3         0
                text559                             49F      49F       30         0
                text558                             3BC      3BC       25         0
                text557                             42B      42B       26         0
                text556                             3E1      3E1       25         0
                text555                             288      288       14         0
                text554                             2E1      2E1       1D         0
                text553                             29C      29C       17         0
                text552                             2B3      2B3       17         0
                text551                             2CA      2CA       17         0
                text550                             4CF      4CF       35         0
                text549                             33C      33C       20         0
                text548                             35C      35C       20         0
                text547                             37C      37C       20         0
                text546                             39C      39C       20         0
                text545                             275      275       13         0
                text544                             406      406       25         0
                text543                             2FE      2FE       1F         0
                text542                             451      451       27         0
                text541                             31D      31D       1F         0
                text540                             478      478       27         0
                text539                             6C8      6C8      138         0
                text538                             504      504       8A         0
                text537                             58E      58E       8A         0
                maintext                            618      618       B0         0
                cinit                               26F      26F        6         0

        CLASS   STRCODE        

        CLASS   ENTRY          

        CLASS   STRING         
                strings                               3        3       7E         0

        CLASS   COMMON         
                cstackCOMMON                         70       70        E         1

        CLASS   BANK0          
                cstackBANK0                          22       22        1         1
                bssBANK0                             20       20        2         1

        CLASS   BANK1          

        CLASS   BANK2          

        CLASS   BANK3          

        CLASS   RAM            

        CLASS   ABS1           
                abs_s1                               7E       7E        2         1

        CLASS   SFR0           

        CLASS   SFR1           

        CLASS   SFR2           

        CLASS   SFR3           

        CLASS   CONFIG         
                config                             2007     2007        2         0

        CLASS   IDLOC          

        CLASS   EEDATA         



SEGMENTS        Name                           Load    Length   Top    Selector   Space  Class     Delta

                reset_vec                      000000  000003  000003         0       0  CODE        2
                strings                        000003  00007E  000081         6       0  STRING      2
                bssBANK0                       000020  000003  000023        20       1  BANK0       1
                cstackCOMMON                   000070  00000E  00007E        70       1  COMMON      1
                cinit                          00026F  000006  000275       4DE       0  CODE        2
                text545                        000275  000013  000288       4EA       0  CODE        2
                text555                        000288  000014  00029C       510       0  CODE        2
                text553                        00029C  000017  0002B3       538       0  CODE        2
                text552                        0002B3  000017  0002CA       566       0  CODE        2
                text551                        0002CA  000017  0002E1       594       0  CODE        2
                text554                        0002E1  00001D  0002FE       5C2       0  CODE        2
                text543                        0002FE  00001F  00031D       5FC       0  CODE        2
                text541                        00031D  00001F  00033C       63A       0  CODE        2
                text549                        00033C  000020  00035C       678       0  CODE        2
                text548                        00035C  000020  00037C       6B8       0  CODE        2
                text547                        00037C  000020  00039C       6F8       0  CODE        2
                text546                        00039C  000020  0003BC       738       0  CODE        2
                text558                        0003BC  000025  0003E1       778       0  CODE        2
                text556                        0003E1  000025  000406       7C2       0  CODE        2
                text544                        000406  000025  00042B       80C       0  CODE        2
                text557                        00042B  000026  000451       856       0  CODE        2
                text542                        000451  000027  000478       8A2       0  CODE        2
                text540                        000478  000027  00049F       8F0       0  CODE        2
                text559                        00049F  000030  0004CF       93E       0  CODE        2
                text550                        0004CF  000035  000504       99E       0  CODE        2
                text538                        000504  00008A  00058E       A08       0  CODE        2
                text537                        00058E  00008A  000618       B1C       0  CODE        2
                maintext                       000618  0000B0  0006C8       C30       0  CODE        2
                text539                        0006C8  000138  000800       D90       0  CODE        2
                config                         002007  000002  002009      400E       0  CONFIG      2


UNUSED ADDRESS RANGES

        Name                Unused          Largest block    Delta
        BANK0            0023-006F             4D           1
        BANK1            00A0-00EF             50           1
        BANK2            0110-016F             60           1
        BANK3            0190-01EF             60           1
        CODE             0081-026E            1EE           2
                         0800-1FFF            800
        CONST            0081-026E            100           2
                         0800-1FFF            100
        ENTRY            0081-026E            100           2
                         0800-1FFF            100
        IDLOC            2000-2003              4           2
        RAM              0023-006F             4D           1
                         00A0-00EF             50
                         0110-016F             60
                         0190-01EF             60
        SFR0             0000-001F             20           1
        SFR1             0080-009F             20           1
        SFR2             0100-010F             10           1
        SFR3             0180-018F             10           1
        STRCODE          0081-026E            1EE           2
                         0800-1FFF           1800
        STRING           0081-026E            100           2
                         0800-1FFF            100

                                  Symbol Table

??_alphamode            cstackCOMMON 007E
??_betamode             cstackCOMMON 007E
??_bm_run               cstackCOMMON 0070
??_clockwise            cstackCOMMON 007D
??_deg_0                cstackCOMMON 007D
??_deg_150              cstackCOMMON 007D
??_deg_180              cstackCOMMON 007D
??_deg_210              cstackCOMMON 007D
??_deg_270              cstackCOMMON 007D
??_deg_30               cstackCOMMON 007D
??_deg_330              cstackCOMMON 007D
??_deg_90               cstackCOMMON 007D
??_delay                cstackCOMMON 0074
??_lcd_clr              cstackCOMMON 0079
??_lcd_goto             cstackCOMMON 0079
??_lm_run               cstackCOMMON 0070
??_m_stop               cstackCOMMON 007D
??_main                 cstackBANK0  0022
??_mode_display         cstackCOMMON 007C
??_rm_run               cstackCOMMON 0070
??_send_char            cstackCOMMON 0078
??_send_config          cstackCOMMON 0078
??_send_string          cstackCOMMON 0079
??_shift_display        cstackCOMMON 007B
?_alphamode             cstackCOMMON 0070
?_betamode              cstackCOMMON 0070
?_bm_run                cstackCOMMON 0070
?_clockwise             cstackCOMMON 0070
?_deg_0                 cstackCOMMON 0070
?_deg_150               cstackCOMMON 0070
?_deg_180               cstackCOMMON 0070
?_deg_210               cstackCOMMON 0070
?_deg_270               cstackCOMMON 0070
?_deg_30                cstackCOMMON 0070
?_deg_330               cstackCOMMON 0070
?_deg_90                cstackCOMMON 0070
?_delay                 cstackCOMMON 0070
?_lcd_clr               cstackCOMMON 0070
?_lcd_goto              cstackCOMMON 0070
?_lm_run                cstackCOMMON 0070
?_m_stop                cstackCOMMON 0070
?_main                  cstackCOMMON 0070
?_mode_display          cstackCOMMON 007B
?_rm_run                cstackCOMMON 0070
?_send_char             cstackCOMMON 0070
?_send_config           cstackCOMMON 0070
?_send_string           cstackCOMMON 0070
?_shift_display         cstackCOMMON 0070
_ADCON1                 (abs)        009F
_CCP1CON                (abs)        0017
_CCP2CON                (abs)        001D
_CCP3CON                (abs)        0097
_CCPR1L                 (abs)        0015
_CCPR2L                 (abs)        001B
_CCPR3L                 (abs)        0095
_PORTB                  (abs)        0006
_PORTC                  (abs)        0007
_PORTD                  (abs)        0008
_PR2                    (abs)        0092
_RA0                    (abs)        0028
_RA1                    (abs)        0029
_RA2                    (abs)        002A
_RA3                    (abs)        002B
_RB3                    (abs)        0033
_RB4                    (abs)        0034
_RB6                    (abs)        0036
_RB7                    (abs)        0037
_RC0                    (abs)        0038
_RC3                    (abs)        003B
_RC4                    (abs)        003C
_RC5                    (abs)        003D
_T2CON                  (abs)        0012
_TRISA                  (abs)        0085
_TRISB                  (abs)        0086
_TRISC                  (abs)        0087
_TRISD                  (abs)        0088
__Habs1                 abs1         0000
__Hbank0                bank0        0000
__Hbank1                bank1        0000
__Hbank2                bank2        0000
__Hbank3                bank3        0000
__HbssBANK0             bssBANK0     0000
__Hcinit                cinit        0000
__Hclrtext              clrtext      0000
__Hcode                 code         0000
__Hcommon               common       0000
__Hconfig               config       2009
__HcstackBANK0          cstackBANK0  0000
__HcstackCOMMON         cstackCOMMON 0000
__Heeprom_data          eeprom_data  0000
__Hend_init             end_init     0003
__Hfunctab              functab      0000
__Hidloc                idloc        0000
__Hinit                 init         0000
__Hintentry             intentry     0000
__Hmaintext             maintext     0000
__Hpowerup              powerup      0000
__Hram                  ram          0000
__Hreset_vec            reset_vec    0000
__Hsfr0                 sfr0         0000
__Hsfr1                 sfr1         0000
__Hsfr2                 sfr2         0000
__Hsfr3                 sfr3         0000
__Hstrings              strings      0000
__Htext                 text         0000
__Labs1                 abs1         0000
__Lbank0                bank0        0000
__Lbank1                bank1        0000
__Lbank2                bank2        0000
__Lbank3                bank3        0000
__LbssBANK0             bssBANK0     0000
__Lcinit                cinit        0000
__Lclrtext              clrtext      0000
__Lcode                 code         0000
__Lcommon               common       0000
__Lconfig               config       2007
__LcstackBANK0          cstackBANK0  0000
__LcstackCOMMON         cstackCOMMON 0000
__Leeprom_data          eeprom_data  0000
__Lend_init             end_init     0000
__Lfunctab              functab      0000
__Lidloc                idloc        0000
__Linit                 init         0000
__Lintentry             intentry     0000
__Lmaintext             maintext     0000
__Lpowerup              powerup      0000
__Lram                  ram          0000
__Lreset_vec            reset_vec    0000
__Lsfr0                 sfr0         0000
__Lsfr1                 sfr1         0000
__Lsfr2                 sfr2         0000
__Lsfr3                 sfr3         0000
__Lstrings              strings      0000
__Ltext                 text         0000
__S0                    (abs)        2009
__S1                    (abs)        007E
__end_of_alphamode      text537      0618
__end_of_betamode       text538      058E
__end_of_bm_run         text553      02B3
__end_of_clockwise      text544      042B
__end_of_deg_0          text541      033C
__end_of_deg_150        text548      037C
__end_of_deg_180        text543      031D
__end_of_deg_210        text549      035C
__end_of_deg_270        text540      049F
__end_of_deg_30         text547      039C
__end_of_deg_330        text546      03BC
__end_of_deg_90         text542      0478
__end_of_delay          text559      04CF
__end_of_lcd_clr        text555      029C
__end_of_lcd_goto       text554      02FE
__end_of_lm_run         text551      02E1
__end_of_m_stop         text545      0288
__end_of_main           maintext     06C8
__end_of_mode_display   text550      0504
__end_of_rm_run         text552      02CA
__end_of_send_char      text558      03E1
__end_of_send_config    text556      0406
__end_of_send_string    text557      0451
__end_of_shift_display  text539      0800
__pbssBANK0             bssBANK0     0020
__pcstackBANK0          cstackBANK0  0022
__pcstackCOMMON         cstackCOMMON 0070
__pmaintext             maintext     0618
__pstrings              strings      0003
__ptext537              text537      058E
__ptext538              text538      0504
__ptext539              text539      06C8
__ptext540              text540      0478
__ptext541              text541      031D
__ptext542              text542      0451
__ptext543              text543      02FE
__ptext544              text544      0406
__ptext545              text545      0275
__ptext546              text546      039C
__ptext547              text547      037C
__ptext548              text548      035C
__ptext549              text549      033C
__ptext550              text550      04CF
__ptext551              text551      02CA
__ptext552              text552      02B3
__ptext553              text553      029C
__ptext554              text554      02E1
__ptext555              text555      0288
__ptext556              text556      03E1
__ptext557              text557      042B
__ptext558              text558      03BC
__ptext559              text559      049F
__ptext560              text560      0000
__size_of_alphamode     (abs)        0000
__size_of_betamode      (abs)        0000
__size_of_bm_run        (abs)        0000
__size_of_clockwise     (abs)        0000
__size_of_deg_0         (abs)        0000
__size_of_deg_150       (abs)        0000
__size_of_deg_180       (abs)        0000
__size_of_deg_210       (abs)        0000
__size_of_deg_270       (abs)        0000
__size_of_deg_30        (abs)        0000
__size_of_deg_330       (abs)        0000
__size_of_deg_90        (abs)        0000
__size_of_delay         (abs)        0000
__size_of_lcd_clr       (abs)        0000
__size_of_lcd_goto      (abs)        0000
__size_of_lm_run        (abs)        0000
__size_of_m_stop        (abs)        0000
__size_of_main          (abs)        0000
__size_of_mode_display  (abs)        0000
__size_of_rm_run        (abs)        0000
__size_of_send_char     (abs)        0000
__size_of_send_config   (abs)        0000
__size_of_send_string   (abs)        0000
__size_of_shift_display (abs)        0000
_alphamode              text537      058E
_betamode               text538      0504
_bm_run                 text553      029C
_clockwise              text544      0406
_deg_0                  text541      031D
_deg_150                text548      035C
_deg_180                text543      02FE
_deg_210                text549      033C
_deg_270                text540      0478
_deg_30                 text547      037C
_deg_330                text546      039C
_deg_90                 text542      0451
_delay                  text559      049F
_i                      bssBANK0     0020
_lcd_clr                text555      0288
_lcd_goto               text554      02E1
_lm_run                 text551      02CA
_m_stop                 text545      0275
_main                   maintext     0618
_mode_display           text550      04CF
_rm_run                 text552      02B3
_send_char              text558      03BC
_send_config            text556      03E1
_send_string            text557      042B
_shift                  bssBANK0     0021
_shift_display          text539      06C8
bm_run@dir              cstackCOMMON 0070
btemp                   (abs)        007E
delay@data              cstackCOMMON 0070
end_of_initialization   cinit        0271
intlevel0               functab      0000
intlevel1               functab      0000
intlevel2               functab      0000
intlevel3               functab      0000
intlevel4               functab      0000
intlevel5               functab      0000
lcd_goto@data           cstackCOMMON 007A
lm_run@dir              cstackCOMMON 0070
mode_display@x          cstackCOMMON 007C
mode_display@y          cstackCOMMON 007B
reset_vec               reset_vec    0000
rm_run@dir              cstackCOMMON 0070
send_char@data          cstackCOMMON 0078
send_config@data        cstackCOMMON 0078
send_string@s           cstackCOMMON 007A
start                   init         0000
start_initialization    cinit        026F
wtemp0                  (abs)        007E
